   1               		.file	"HIDParser.c"
   2               	__SP_H__ = 0x3e
   3               	__SP_L__ = 0x3d
   4               	__SREG__ = 0x3f
   5               	__tmp_reg__ = 0
   6               	__zero_reg__ = 1
   7               		.text
   8               	.Ltext0:
   9               		.cfi_sections	.debug_frame
  10               		.section	.text.USB_ProcessHIDReport,"ax",@progbits
  11               	.global	USB_ProcessHIDReport
  13               	USB_ProcessHIDReport:
  14               	.LFB16:
  15               		.file 1 "../../LUFA-111009/LUFA/Drivers/USB/Class/Common/HIDParser.c"
   1:../../LUFA-111009/LUFA/Drivers/USB/Class/Common/HIDParser.c **** /*
   2:../../LUFA-111009/LUFA/Drivers/USB/Class/Common/HIDParser.c ****              LUFA Library
   3:../../LUFA-111009/LUFA/Drivers/USB/Class/Common/HIDParser.c ****      Copyright (C) Dean Camera, 2011.
   4:../../LUFA-111009/LUFA/Drivers/USB/Class/Common/HIDParser.c **** 
   5:../../LUFA-111009/LUFA/Drivers/USB/Class/Common/HIDParser.c ****   dean [at] fourwalledcubicle [dot] com
   6:../../LUFA-111009/LUFA/Drivers/USB/Class/Common/HIDParser.c ****            www.lufa-lib.org
   7:../../LUFA-111009/LUFA/Drivers/USB/Class/Common/HIDParser.c **** */
   8:../../LUFA-111009/LUFA/Drivers/USB/Class/Common/HIDParser.c **** 
   9:../../LUFA-111009/LUFA/Drivers/USB/Class/Common/HIDParser.c **** /*
  10:../../LUFA-111009/LUFA/Drivers/USB/Class/Common/HIDParser.c ****   Copyright 2011  Dean Camera (dean [at] fourwalledcubicle [dot] com)
  11:../../LUFA-111009/LUFA/Drivers/USB/Class/Common/HIDParser.c **** 
  12:../../LUFA-111009/LUFA/Drivers/USB/Class/Common/HIDParser.c ****   Permission to use, copy, modify, distribute, and sell this
  13:../../LUFA-111009/LUFA/Drivers/USB/Class/Common/HIDParser.c ****   software and its documentation for any purpose is hereby granted
  14:../../LUFA-111009/LUFA/Drivers/USB/Class/Common/HIDParser.c ****   without fee, provided that the above copyright notice appear in
  15:../../LUFA-111009/LUFA/Drivers/USB/Class/Common/HIDParser.c ****   all copies and that both that the copyright notice and this
  16:../../LUFA-111009/LUFA/Drivers/USB/Class/Common/HIDParser.c ****   permission notice and warranty disclaimer appear in supporting
  17:../../LUFA-111009/LUFA/Drivers/USB/Class/Common/HIDParser.c ****   documentation, and that the name of the author not be used in
  18:../../LUFA-111009/LUFA/Drivers/USB/Class/Common/HIDParser.c ****   advertising or publicity pertaining to distribution of the
  19:../../LUFA-111009/LUFA/Drivers/USB/Class/Common/HIDParser.c ****   software without specific, written prior permission.
  20:../../LUFA-111009/LUFA/Drivers/USB/Class/Common/HIDParser.c **** 
  21:../../LUFA-111009/LUFA/Drivers/USB/Class/Common/HIDParser.c ****   The author disclaim all warranties with regard to this
  22:../../LUFA-111009/LUFA/Drivers/USB/Class/Common/HIDParser.c ****   software, including all implied warranties of merchantability
  23:../../LUFA-111009/LUFA/Drivers/USB/Class/Common/HIDParser.c ****   and fitness.  In no event shall the author be liable for any
  24:../../LUFA-111009/LUFA/Drivers/USB/Class/Common/HIDParser.c ****   special, indirect or consequential damages or any damages
  25:../../LUFA-111009/LUFA/Drivers/USB/Class/Common/HIDParser.c ****   whatsoever resulting from loss of use, data or profits, whether
  26:../../LUFA-111009/LUFA/Drivers/USB/Class/Common/HIDParser.c ****   in an action of contract, negligence or other tortious action,
  27:../../LUFA-111009/LUFA/Drivers/USB/Class/Common/HIDParser.c ****   arising out of or in connection with the use or performance of
  28:../../LUFA-111009/LUFA/Drivers/USB/Class/Common/HIDParser.c ****   this software.
  29:../../LUFA-111009/LUFA/Drivers/USB/Class/Common/HIDParser.c **** */
  30:../../LUFA-111009/LUFA/Drivers/USB/Class/Common/HIDParser.c **** 
  31:../../LUFA-111009/LUFA/Drivers/USB/Class/Common/HIDParser.c **** #define  __INCLUDE_FROM_USB_DRIVER
  32:../../LUFA-111009/LUFA/Drivers/USB/Class/Common/HIDParser.c **** #define  __INCLUDE_FROM_HID_DRIVER
  33:../../LUFA-111009/LUFA/Drivers/USB/Class/Common/HIDParser.c **** #include "HIDParser.h"
  34:../../LUFA-111009/LUFA/Drivers/USB/Class/Common/HIDParser.c **** 
  35:../../LUFA-111009/LUFA/Drivers/USB/Class/Common/HIDParser.c **** uint8_t USB_ProcessHIDReport(const uint8_t* ReportData,
  36:../../LUFA-111009/LUFA/Drivers/USB/Class/Common/HIDParser.c ****                              uint16_t ReportSize,
  37:../../LUFA-111009/LUFA/Drivers/USB/Class/Common/HIDParser.c ****                              HID_ReportInfo_t* const ParserData)
  38:../../LUFA-111009/LUFA/Drivers/USB/Class/Common/HIDParser.c **** {
  16               		.loc 1 38 0
  17               		.cfi_startproc
  18               	.LVL0:
  19 0000 2F92      		push r2
  20               	.LCFI0:
  21               		.cfi_def_cfa_offset 3
  22               		.cfi_offset 2, -2
  23 0002 3F92      		push r3
  24               	.LCFI1:
  25               		.cfi_def_cfa_offset 4
  26               		.cfi_offset 3, -3
  27 0004 4F92      		push r4
  28               	.LCFI2:
  29               		.cfi_def_cfa_offset 5
  30               		.cfi_offset 4, -4
  31 0006 5F92      		push r5
  32               	.LCFI3:
  33               		.cfi_def_cfa_offset 6
  34               		.cfi_offset 5, -5
  35 0008 6F92      		push r6
  36               	.LCFI4:
  37               		.cfi_def_cfa_offset 7
  38               		.cfi_offset 6, -6
  39 000a 7F92      		push r7
  40               	.LCFI5:
  41               		.cfi_def_cfa_offset 8
  42               		.cfi_offset 7, -7
  43 000c 8F92      		push r8
  44               	.LCFI6:
  45               		.cfi_def_cfa_offset 9
  46               		.cfi_offset 8, -8
  47 000e 9F92      		push r9
  48               	.LCFI7:
  49               		.cfi_def_cfa_offset 10
  50               		.cfi_offset 9, -9
  51 0010 AF92      		push r10
  52               	.LCFI8:
  53               		.cfi_def_cfa_offset 11
  54               		.cfi_offset 10, -10
  55 0012 BF92      		push r11
  56               	.LCFI9:
  57               		.cfi_def_cfa_offset 12
  58               		.cfi_offset 11, -11
  59 0014 CF92      		push r12
  60               	.LCFI10:
  61               		.cfi_def_cfa_offset 13
  62               		.cfi_offset 12, -12
  63 0016 DF92      		push r13
  64               	.LCFI11:
  65               		.cfi_def_cfa_offset 14
  66               		.cfi_offset 13, -13
  67 0018 EF92      		push r14
  68               	.LCFI12:
  69               		.cfi_def_cfa_offset 15
  70               		.cfi_offset 14, -14
  71 001a FF92      		push r15
  72               	.LCFI13:
  73               		.cfi_def_cfa_offset 16
  74               		.cfi_offset 15, -15
  75 001c 0F93      		push r16
  76               	.LCFI14:
  77               		.cfi_def_cfa_offset 17
  78               		.cfi_offset 16, -16
  79 001e 1F93      		push r17
  80               	.LCFI15:
  81               		.cfi_def_cfa_offset 18
  82               		.cfi_offset 17, -17
  83 0020 CF93      		push r28
  84               	.LCFI16:
  85               		.cfi_def_cfa_offset 19
  86               		.cfi_offset 28, -18
  87 0022 DF93      		push r29
  88               	.LCFI17:
  89               		.cfi_def_cfa_offset 20
  90               		.cfi_offset 29, -19
  91 0024 CDB7      		in r28,__SP_L__
  92 0026 DEB7      		in r29,__SP_H__
  93               	.LCFI18:
  94               		.cfi_def_cfa_register 28
  95 0028 CD58      		subi r28,-115
  96 002a D109      		sbc r29,__zero_reg__
  97               	.LCFI19:
  98               		.cfi_def_cfa_offset 161
  99 002c 0FB6      		in __tmp_reg__,__SREG__
 100 002e F894      		cli
 101 0030 DEBF      		out __SP_H__,r29
 102 0032 0FBE      		out __SREG__,__tmp_reg__
 103 0034 CDBF      		out __SP_L__,r28
 104               	/* prologue: function */
 105               	/* frame size = 141 */
 106               	/* stack size = 159 */
 107               	.L__stack_usage = 159
 108 0036 1C01      		movw r2,r24
 109               	.LVL1:
  39:../../LUFA-111009/LUFA/Drivers/USB/Class/Common/HIDParser.c **** 	HID_StateTable_t      StateTable[HID_STATETABLE_STACK_DEPTH];
  40:../../LUFA-111009/LUFA/Drivers/USB/Class/Common/HIDParser.c **** 	HID_StateTable_t*     CurrStateTable          = &StateTable[0];
  41:../../LUFA-111009/LUFA/Drivers/USB/Class/Common/HIDParser.c **** 	HID_CollectionPath_t* CurrCollectionPath      = NULL;
  42:../../LUFA-111009/LUFA/Drivers/USB/Class/Common/HIDParser.c **** 	HID_ReportSizeInfo_t* CurrReportIDInfo        = &ParserData->ReportIDSizes[0];
 110               		.loc 1 42 0
 111 0038 9A01      		movw r18,r20
 112 003a 2057      		subi r18,112
 113 003c 3C4F      		sbci r19,-4
 114 003e E896      		adiw r28,118-62
 115 0040 3FAF      		std Y+63,r19
 116 0042 2EAF      		std Y+62,r18
 117 0044 E897      		sbiw r28,118-62
 118               	.LVL2:
  43:../../LUFA-111009/LUFA/Drivers/USB/Class/Common/HIDParser.c **** 	uint16_t              UsageList[HID_USAGE_STACK_DEPTH];
  44:../../LUFA-111009/LUFA/Drivers/USB/Class/Common/HIDParser.c **** 	uint8_t               UsageListSize           = 0;
  45:../../LUFA-111009/LUFA/Drivers/USB/Class/Common/HIDParser.c **** 	HID_MinMax_t          UsageMinMax             = {0, 0};
  46:../../LUFA-111009/LUFA/Drivers/USB/Class/Common/HIDParser.c **** 
  47:../../LUFA-111009/LUFA/Drivers/USB/Class/Common/HIDParser.c **** 	memset(ParserData,       0x00, sizeof(HID_ReportInfo_t));
 119               		.loc 1 47 0
 120 0046 89ED      		ldi r24,lo8(-39)
 121 0048 93E0      		ldi r25,lo8(3)
 122               	.LVL3:
 123 004a DA01      		movw r26,r20
 124 004c FC01      		movw r30,r24
 125               		0:
 126 004e 1D92      		st X+,__zero_reg__
 127 0050 3197      		sbiw r30,1
 128 0052 01F4      		brne 0b
  48:../../LUFA-111009/LUFA/Drivers/USB/Class/Common/HIDParser.c **** 	memset(CurrStateTable,   0x00, sizeof(HID_StateTable_t));
 129               		.loc 1 48 0
 130 0054 FE01      		movw r30,r28
 131 0056 3196      		adiw r30,1
 132 0058 8CE1      		ldi r24,lo8(28)
 133 005a DF01      		movw r26,r30
 134               		0:
 135 005c 1D92      		st X+,__zero_reg__
 136 005e 8A95      		dec r24
 137 0060 01F4      		brne 0b
  49:../../LUFA-111009/LUFA/Drivers/USB/Class/Common/HIDParser.c **** 	memset(CurrReportIDInfo, 0x00, sizeof(HID_ReportSizeInfo_t));
 138               		.loc 1 49 0
 139 0062 87E0      		ldi r24,lo8(7)
 140 0064 D901      		movw r26,r18
 141               		0:
 142 0066 1D92      		st X+,__zero_reg__
 143 0068 8A95      		dec r24
 144 006a 01F4      		brne 0b
  50:../../LUFA-111009/LUFA/Drivers/USB/Class/Common/HIDParser.c **** 
  51:../../LUFA-111009/LUFA/Drivers/USB/Class/Common/HIDParser.c **** 	ParserData->TotalDeviceReports = 1;
 145               		.loc 1 51 0
 146 006c 9A01      		movw r18,r20
 147               	.LVL4:
 148 006e 2157      		subi r18,113
 149 0070 3C4F      		sbci r19,-4
 150 0072 EB96      		adiw r28,121-62
 151 0074 3FAF      		std Y+63,r19
 152 0076 2EAF      		std Y+62,r18
 153 0078 EB97      		sbiw r28,121-62
 154 007a 81E0      		ldi r24,lo8(1)
 155 007c D901      		movw r26,r18
 156 007e 8C93      		st X,r24
  45:../../LUFA-111009/LUFA/Drivers/USB/Class/Common/HIDParser.c **** 	HID_MinMax_t          UsageMinMax             = {0, 0};
 157               		.loc 1 45 0
 158 0080 412C      		mov r4,__zero_reg__
 159 0082 512C      		mov r5,__zero_reg__
 160 0084 3201      		movw r6,r4
 161 0086 812C      		mov r8,__zero_reg__
 162 0088 912C      		mov r9,__zero_reg__
 163 008a 5401      		movw r10,r8
  44:../../LUFA-111009/LUFA/Drivers/USB/Class/Common/HIDParser.c **** 	uint8_t               UsageListSize           = 0;
 164               		.loc 1 44 0
 165 008c E496      		adiw r28,115-63
 166 008e 1FAE      		std Y+63,__zero_reg__
 167 0090 E497      		sbiw r28,115-63
  41:../../LUFA-111009/LUFA/Drivers/USB/Class/Common/HIDParser.c **** 	HID_CollectionPath_t* CurrCollectionPath      = NULL;
 168               		.loc 1 41 0
 169 0092 E696      		adiw r28,116-62
 170 0094 1FAE      		std Y+63,__zero_reg__
 171 0096 1EAE      		std Y+62,__zero_reg__
 172 0098 E697      		sbiw r28,116-62
  40:../../LUFA-111009/LUFA/Drivers/USB/Class/Common/HIDParser.c **** 	HID_StateTable_t*     CurrStateTable          = &StateTable[0];
 173               		.loc 1 40 0
 174 009a 8F01      		movw r16,r30
 175               	.LBB2:
 176               	.LBB3:
 177               	.LBB4:
  52:../../LUFA-111009/LUFA/Drivers/USB/Class/Common/HIDParser.c **** 
  53:../../LUFA-111009/LUFA/Drivers/USB/Class/Common/HIDParser.c **** 	while (ReportSize)
  54:../../LUFA-111009/LUFA/Drivers/USB/Class/Common/HIDParser.c **** 	{
  55:../../LUFA-111009/LUFA/Drivers/USB/Class/Common/HIDParser.c **** 		uint8_t  HIDReportItem  = *ReportData;
  56:../../LUFA-111009/LUFA/Drivers/USB/Class/Common/HIDParser.c **** 		uint32_t ReportItemData = 0;
  57:../../LUFA-111009/LUFA/Drivers/USB/Class/Common/HIDParser.c **** 
  58:../../LUFA-111009/LUFA/Drivers/USB/Class/Common/HIDParser.c **** 		ReportData++;
  59:../../LUFA-111009/LUFA/Drivers/USB/Class/Common/HIDParser.c **** 		ReportSize--;
  60:../../LUFA-111009/LUFA/Drivers/USB/Class/Common/HIDParser.c **** 
  61:../../LUFA-111009/LUFA/Drivers/USB/Class/Common/HIDParser.c **** 		switch (HIDReportItem & HID_RI_DATA_SIZE_MASK)
  62:../../LUFA-111009/LUFA/Drivers/USB/Class/Common/HIDParser.c **** 		{
  63:../../LUFA-111009/LUFA/Drivers/USB/Class/Common/HIDParser.c **** 			case HID_RI_DATA_BITS_32:
  64:../../LUFA-111009/LUFA/Drivers/USB/Class/Common/HIDParser.c **** 				ReportItemData  = le32_to_cpu(*((uint32_t*)ReportData));
  65:../../LUFA-111009/LUFA/Drivers/USB/Class/Common/HIDParser.c **** 				ReportSize     -= 4;
  66:../../LUFA-111009/LUFA/Drivers/USB/Class/Common/HIDParser.c **** 				ReportData     += 4;
  67:../../LUFA-111009/LUFA/Drivers/USB/Class/Common/HIDParser.c **** 				break;
  68:../../LUFA-111009/LUFA/Drivers/USB/Class/Common/HIDParser.c **** 			case HID_RI_DATA_BITS_16:
  69:../../LUFA-111009/LUFA/Drivers/USB/Class/Common/HIDParser.c **** 				ReportItemData  = le16_to_cpu(*((uint16_t*)ReportData));
  70:../../LUFA-111009/LUFA/Drivers/USB/Class/Common/HIDParser.c **** 				ReportSize     -= 2;
  71:../../LUFA-111009/LUFA/Drivers/USB/Class/Common/HIDParser.c **** 				ReportData     += 2;
  72:../../LUFA-111009/LUFA/Drivers/USB/Class/Common/HIDParser.c **** 				break;
  73:../../LUFA-111009/LUFA/Drivers/USB/Class/Common/HIDParser.c **** 			case HID_RI_DATA_BITS_8:
  74:../../LUFA-111009/LUFA/Drivers/USB/Class/Common/HIDParser.c **** 				ReportItemData  = *((uint8_t*)ReportData);
  75:../../LUFA-111009/LUFA/Drivers/USB/Class/Common/HIDParser.c **** 				ReportSize     -= 1;
  76:../../LUFA-111009/LUFA/Drivers/USB/Class/Common/HIDParser.c **** 				ReportData     += 1;
  77:../../LUFA-111009/LUFA/Drivers/USB/Class/Common/HIDParser.c **** 				break;
  78:../../LUFA-111009/LUFA/Drivers/USB/Class/Common/HIDParser.c **** 		}
  79:../../LUFA-111009/LUFA/Drivers/USB/Class/Common/HIDParser.c **** 
  80:../../LUFA-111009/LUFA/Drivers/USB/Class/Common/HIDParser.c **** 		switch (HIDReportItem & (HID_RI_TYPE_MASK | HID_RI_TAG_MASK))
  81:../../LUFA-111009/LUFA/Drivers/USB/Class/Common/HIDParser.c **** 		{
  82:../../LUFA-111009/LUFA/Drivers/USB/Class/Common/HIDParser.c **** 			case HID_RI_PUSH(0):
  83:../../LUFA-111009/LUFA/Drivers/USB/Class/Common/HIDParser.c **** 				if (CurrStateTable == &StateTable[HID_STATETABLE_STACK_DEPTH - 1])
  84:../../LUFA-111009/LUFA/Drivers/USB/Class/Common/HIDParser.c **** 				  return HID_PARSE_HIDStackOverflow;
  85:../../LUFA-111009/LUFA/Drivers/USB/Class/Common/HIDParser.c **** 
  86:../../LUFA-111009/LUFA/Drivers/USB/Class/Common/HIDParser.c **** 				memcpy((CurrStateTable + 1),
  87:../../LUFA-111009/LUFA/Drivers/USB/Class/Common/HIDParser.c **** 				       CurrStateTable,
  88:../../LUFA-111009/LUFA/Drivers/USB/Class/Common/HIDParser.c **** 				       sizeof(HID_ReportItem_t));
  89:../../LUFA-111009/LUFA/Drivers/USB/Class/Common/HIDParser.c **** 
  90:../../LUFA-111009/LUFA/Drivers/USB/Class/Common/HIDParser.c **** 				CurrStateTable++;
  91:../../LUFA-111009/LUFA/Drivers/USB/Class/Common/HIDParser.c **** 				break;
  92:../../LUFA-111009/LUFA/Drivers/USB/Class/Common/HIDParser.c **** 			case HID_RI_POP(0):
  93:../../LUFA-111009/LUFA/Drivers/USB/Class/Common/HIDParser.c **** 				if (CurrStateTable == &StateTable[0])
  94:../../LUFA-111009/LUFA/Drivers/USB/Class/Common/HIDParser.c **** 				  return HID_PARSE_HIDStackUnderflow;
  95:../../LUFA-111009/LUFA/Drivers/USB/Class/Common/HIDParser.c **** 
  96:../../LUFA-111009/LUFA/Drivers/USB/Class/Common/HIDParser.c **** 				CurrStateTable--;
  97:../../LUFA-111009/LUFA/Drivers/USB/Class/Common/HIDParser.c **** 				break;
  98:../../LUFA-111009/LUFA/Drivers/USB/Class/Common/HIDParser.c **** 			case HID_RI_USAGE_PAGE(0):
  99:../../LUFA-111009/LUFA/Drivers/USB/Class/Common/HIDParser.c **** 				if ((HIDReportItem & HID_RI_DATA_SIZE_MASK) == HID_RI_DATA_BITS_32)
 100:../../LUFA-111009/LUFA/Drivers/USB/Class/Common/HIDParser.c **** 				  CurrStateTable->Attributes.Usage.Page = (ReportItemData >> 16);
 101:../../LUFA-111009/LUFA/Drivers/USB/Class/Common/HIDParser.c **** 				
 102:../../LUFA-111009/LUFA/Drivers/USB/Class/Common/HIDParser.c **** 				CurrStateTable->Attributes.Usage.Page       = ReportItemData;
 103:../../LUFA-111009/LUFA/Drivers/USB/Class/Common/HIDParser.c **** 				break;
 104:../../LUFA-111009/LUFA/Drivers/USB/Class/Common/HIDParser.c **** 			case HID_RI_LOGICAL_MINIMUM(0):
 105:../../LUFA-111009/LUFA/Drivers/USB/Class/Common/HIDParser.c **** 				CurrStateTable->Attributes.Logical.Minimum  = ReportItemData;
 106:../../LUFA-111009/LUFA/Drivers/USB/Class/Common/HIDParser.c **** 				break;
 107:../../LUFA-111009/LUFA/Drivers/USB/Class/Common/HIDParser.c **** 			case HID_RI_LOGICAL_MAXIMUM(0):
 108:../../LUFA-111009/LUFA/Drivers/USB/Class/Common/HIDParser.c **** 				CurrStateTable->Attributes.Logical.Maximum  = ReportItemData;
 109:../../LUFA-111009/LUFA/Drivers/USB/Class/Common/HIDParser.c **** 				break;
 110:../../LUFA-111009/LUFA/Drivers/USB/Class/Common/HIDParser.c **** 			case HID_RI_PHYSICAL_MINIMUM(0):
 111:../../LUFA-111009/LUFA/Drivers/USB/Class/Common/HIDParser.c **** 				CurrStateTable->Attributes.Physical.Minimum = ReportItemData;
 112:../../LUFA-111009/LUFA/Drivers/USB/Class/Common/HIDParser.c **** 				break;
 113:../../LUFA-111009/LUFA/Drivers/USB/Class/Common/HIDParser.c **** 			case HID_RI_PHYSICAL_MAXIMUM(0):
 114:../../LUFA-111009/LUFA/Drivers/USB/Class/Common/HIDParser.c **** 				CurrStateTable->Attributes.Physical.Maximum = ReportItemData;
 115:../../LUFA-111009/LUFA/Drivers/USB/Class/Common/HIDParser.c **** 				break;
 116:../../LUFA-111009/LUFA/Drivers/USB/Class/Common/HIDParser.c **** 			case HID_RI_UNIT_EXPONENT(0):
 117:../../LUFA-111009/LUFA/Drivers/USB/Class/Common/HIDParser.c **** 				CurrStateTable->Attributes.Unit.Exponent    = ReportItemData;
 118:../../LUFA-111009/LUFA/Drivers/USB/Class/Common/HIDParser.c **** 				break;
 119:../../LUFA-111009/LUFA/Drivers/USB/Class/Common/HIDParser.c **** 			case HID_RI_UNIT(0):
 120:../../LUFA-111009/LUFA/Drivers/USB/Class/Common/HIDParser.c **** 				CurrStateTable->Attributes.Unit.Type        = ReportItemData;
 121:../../LUFA-111009/LUFA/Drivers/USB/Class/Common/HIDParser.c **** 				break;
 122:../../LUFA-111009/LUFA/Drivers/USB/Class/Common/HIDParser.c **** 			case HID_RI_REPORT_SIZE(0):
 123:../../LUFA-111009/LUFA/Drivers/USB/Class/Common/HIDParser.c **** 				CurrStateTable->Attributes.BitSize          = ReportItemData;
 124:../../LUFA-111009/LUFA/Drivers/USB/Class/Common/HIDParser.c **** 				break;
 125:../../LUFA-111009/LUFA/Drivers/USB/Class/Common/HIDParser.c **** 			case HID_RI_REPORT_COUNT(0):
 126:../../LUFA-111009/LUFA/Drivers/USB/Class/Common/HIDParser.c **** 				CurrStateTable->ReportCount                 = ReportItemData;
 127:../../LUFA-111009/LUFA/Drivers/USB/Class/Common/HIDParser.c **** 				break;
 128:../../LUFA-111009/LUFA/Drivers/USB/Class/Common/HIDParser.c **** 			case HID_RI_REPORT_ID(0):
 129:../../LUFA-111009/LUFA/Drivers/USB/Class/Common/HIDParser.c **** 				CurrStateTable->ReportID                    = ReportItemData;
 130:../../LUFA-111009/LUFA/Drivers/USB/Class/Common/HIDParser.c **** 
 131:../../LUFA-111009/LUFA/Drivers/USB/Class/Common/HIDParser.c **** 				if (ParserData->UsingReportIDs)
 132:../../LUFA-111009/LUFA/Drivers/USB/Class/Common/HIDParser.c **** 				{
 133:../../LUFA-111009/LUFA/Drivers/USB/Class/Common/HIDParser.c **** 					CurrReportIDInfo = NULL;
 134:../../LUFA-111009/LUFA/Drivers/USB/Class/Common/HIDParser.c **** 
 135:../../LUFA-111009/LUFA/Drivers/USB/Class/Common/HIDParser.c **** 					for (uint8_t i = 0; i < ParserData->TotalDeviceReports; i++)
 136:../../LUFA-111009/LUFA/Drivers/USB/Class/Common/HIDParser.c **** 					{
 137:../../LUFA-111009/LUFA/Drivers/USB/Class/Common/HIDParser.c **** 						if (ParserData->ReportIDSizes[i].ReportID == CurrStateTable->ReportID)
 138:../../LUFA-111009/LUFA/Drivers/USB/Class/Common/HIDParser.c **** 						{
 139:../../LUFA-111009/LUFA/Drivers/USB/Class/Common/HIDParser.c **** 							CurrReportIDInfo = &ParserData->ReportIDSizes[i];
 140:../../LUFA-111009/LUFA/Drivers/USB/Class/Common/HIDParser.c **** 							break;
 141:../../LUFA-111009/LUFA/Drivers/USB/Class/Common/HIDParser.c **** 						}
 142:../../LUFA-111009/LUFA/Drivers/USB/Class/Common/HIDParser.c **** 					}
 143:../../LUFA-111009/LUFA/Drivers/USB/Class/Common/HIDParser.c **** 
 144:../../LUFA-111009/LUFA/Drivers/USB/Class/Common/HIDParser.c **** 					if (CurrReportIDInfo == NULL)
 145:../../LUFA-111009/LUFA/Drivers/USB/Class/Common/HIDParser.c **** 					{
 146:../../LUFA-111009/LUFA/Drivers/USB/Class/Common/HIDParser.c **** 						if (ParserData->TotalDeviceReports == HID_MAX_REPORT_IDS)
 147:../../LUFA-111009/LUFA/Drivers/USB/Class/Common/HIDParser.c **** 						  return HID_PARSE_InsufficientReportIDItems;
 148:../../LUFA-111009/LUFA/Drivers/USB/Class/Common/HIDParser.c **** 
 149:../../LUFA-111009/LUFA/Drivers/USB/Class/Common/HIDParser.c **** 						CurrReportIDInfo = &ParserData->ReportIDSizes[ParserData->TotalDeviceReports++];
 150:../../LUFA-111009/LUFA/Drivers/USB/Class/Common/HIDParser.c **** 						memset(CurrReportIDInfo, 0x00, sizeof(HID_ReportSizeInfo_t));
 151:../../LUFA-111009/LUFA/Drivers/USB/Class/Common/HIDParser.c **** 					}
 152:../../LUFA-111009/LUFA/Drivers/USB/Class/Common/HIDParser.c **** 				}
 153:../../LUFA-111009/LUFA/Drivers/USB/Class/Common/HIDParser.c **** 
 154:../../LUFA-111009/LUFA/Drivers/USB/Class/Common/HIDParser.c **** 				ParserData->UsingReportIDs = true;
 155:../../LUFA-111009/LUFA/Drivers/USB/Class/Common/HIDParser.c **** 
 156:../../LUFA-111009/LUFA/Drivers/USB/Class/Common/HIDParser.c **** 				CurrReportIDInfo->ReportID = CurrStateTable->ReportID;
 157:../../LUFA-111009/LUFA/Drivers/USB/Class/Common/HIDParser.c **** 				break;
 158:../../LUFA-111009/LUFA/Drivers/USB/Class/Common/HIDParser.c **** 			case HID_RI_USAGE(0):
 159:../../LUFA-111009/LUFA/Drivers/USB/Class/Common/HIDParser.c **** 				if (UsageListSize == HID_USAGE_STACK_DEPTH)
 160:../../LUFA-111009/LUFA/Drivers/USB/Class/Common/HIDParser.c **** 				  return HID_PARSE_UsageListOverflow;
 161:../../LUFA-111009/LUFA/Drivers/USB/Class/Common/HIDParser.c **** 
 162:../../LUFA-111009/LUFA/Drivers/USB/Class/Common/HIDParser.c **** 				UsageList[UsageListSize++] = ReportItemData;
 163:../../LUFA-111009/LUFA/Drivers/USB/Class/Common/HIDParser.c **** 				break;
 164:../../LUFA-111009/LUFA/Drivers/USB/Class/Common/HIDParser.c **** 			case HID_RI_USAGE_MINIMUM(0):
 165:../../LUFA-111009/LUFA/Drivers/USB/Class/Common/HIDParser.c **** 				UsageMinMax.Minimum = ReportItemData;
 166:../../LUFA-111009/LUFA/Drivers/USB/Class/Common/HIDParser.c **** 				break;
 167:../../LUFA-111009/LUFA/Drivers/USB/Class/Common/HIDParser.c **** 			case HID_RI_USAGE_MAXIMUM(0):
 168:../../LUFA-111009/LUFA/Drivers/USB/Class/Common/HIDParser.c **** 				UsageMinMax.Maximum = ReportItemData;
 169:../../LUFA-111009/LUFA/Drivers/USB/Class/Common/HIDParser.c **** 				break;
 170:../../LUFA-111009/LUFA/Drivers/USB/Class/Common/HIDParser.c **** 			case HID_RI_COLLECTION(0):
 171:../../LUFA-111009/LUFA/Drivers/USB/Class/Common/HIDParser.c **** 				if (CurrCollectionPath == NULL)
 172:../../LUFA-111009/LUFA/Drivers/USB/Class/Common/HIDParser.c **** 				{
 173:../../LUFA-111009/LUFA/Drivers/USB/Class/Common/HIDParser.c **** 					CurrCollectionPath = &ParserData->CollectionPaths[0];
 174:../../LUFA-111009/LUFA/Drivers/USB/Class/Common/HIDParser.c **** 				}
 175:../../LUFA-111009/LUFA/Drivers/USB/Class/Common/HIDParser.c **** 				else
 176:../../LUFA-111009/LUFA/Drivers/USB/Class/Common/HIDParser.c **** 				{
 177:../../LUFA-111009/LUFA/Drivers/USB/Class/Common/HIDParser.c **** 					HID_CollectionPath_t* ParentCollectionPath = CurrCollectionPath;
 178:../../LUFA-111009/LUFA/Drivers/USB/Class/Common/HIDParser.c **** 
 179:../../LUFA-111009/LUFA/Drivers/USB/Class/Common/HIDParser.c **** 					CurrCollectionPath = &ParserData->CollectionPaths[1];
 180:../../LUFA-111009/LUFA/Drivers/USB/Class/Common/HIDParser.c **** 
 181:../../LUFA-111009/LUFA/Drivers/USB/Class/Common/HIDParser.c **** 					while (CurrCollectionPath->Parent != NULL)
 182:../../LUFA-111009/LUFA/Drivers/USB/Class/Common/HIDParser.c **** 					{
 183:../../LUFA-111009/LUFA/Drivers/USB/Class/Common/HIDParser.c **** 						if (CurrCollectionPath == &ParserData->CollectionPaths[HID_MAX_COLLECTIONS - 1])
 184:../../LUFA-111009/LUFA/Drivers/USB/Class/Common/HIDParser.c **** 						  return HID_PARSE_InsufficientCollectionPaths;
 185:../../LUFA-111009/LUFA/Drivers/USB/Class/Common/HIDParser.c **** 
 186:../../LUFA-111009/LUFA/Drivers/USB/Class/Common/HIDParser.c **** 						CurrCollectionPath++;
 187:../../LUFA-111009/LUFA/Drivers/USB/Class/Common/HIDParser.c **** 					}
 188:../../LUFA-111009/LUFA/Drivers/USB/Class/Common/HIDParser.c **** 
 189:../../LUFA-111009/LUFA/Drivers/USB/Class/Common/HIDParser.c **** 					CurrCollectionPath->Parent = ParentCollectionPath;
 190:../../LUFA-111009/LUFA/Drivers/USB/Class/Common/HIDParser.c **** 				}
 191:../../LUFA-111009/LUFA/Drivers/USB/Class/Common/HIDParser.c **** 
 192:../../LUFA-111009/LUFA/Drivers/USB/Class/Common/HIDParser.c **** 				CurrCollectionPath->Type       = ReportItemData;
 193:../../LUFA-111009/LUFA/Drivers/USB/Class/Common/HIDParser.c **** 				CurrCollectionPath->Usage.Page = CurrStateTable->Attributes.Usage.Page;
 194:../../LUFA-111009/LUFA/Drivers/USB/Class/Common/HIDParser.c **** 
 195:../../LUFA-111009/LUFA/Drivers/USB/Class/Common/HIDParser.c **** 				if (UsageListSize)
 196:../../LUFA-111009/LUFA/Drivers/USB/Class/Common/HIDParser.c **** 				{
 197:../../LUFA-111009/LUFA/Drivers/USB/Class/Common/HIDParser.c **** 					CurrCollectionPath->Usage.Usage = UsageList[0];
 198:../../LUFA-111009/LUFA/Drivers/USB/Class/Common/HIDParser.c **** 
 199:../../LUFA-111009/LUFA/Drivers/USB/Class/Common/HIDParser.c **** 					for (uint8_t i = 0; i < UsageListSize; i++)
 200:../../LUFA-111009/LUFA/Drivers/USB/Class/Common/HIDParser.c **** 					  UsageList[i] = UsageList[i + 1];
 201:../../LUFA-111009/LUFA/Drivers/USB/Class/Common/HIDParser.c **** 
 202:../../LUFA-111009/LUFA/Drivers/USB/Class/Common/HIDParser.c **** 					UsageListSize--;
 203:../../LUFA-111009/LUFA/Drivers/USB/Class/Common/HIDParser.c **** 				}
 204:../../LUFA-111009/LUFA/Drivers/USB/Class/Common/HIDParser.c **** 				else if (UsageMinMax.Minimum <= UsageMinMax.Maximum)
 205:../../LUFA-111009/LUFA/Drivers/USB/Class/Common/HIDParser.c **** 				{
 206:../../LUFA-111009/LUFA/Drivers/USB/Class/Common/HIDParser.c **** 					CurrCollectionPath->Usage.Usage = UsageMinMax.Minimum++;
 207:../../LUFA-111009/LUFA/Drivers/USB/Class/Common/HIDParser.c **** 				}
 208:../../LUFA-111009/LUFA/Drivers/USB/Class/Common/HIDParser.c **** 
 209:../../LUFA-111009/LUFA/Drivers/USB/Class/Common/HIDParser.c **** 				break;
 210:../../LUFA-111009/LUFA/Drivers/USB/Class/Common/HIDParser.c **** 			case HID_RI_END_COLLECTION(0):
 211:../../LUFA-111009/LUFA/Drivers/USB/Class/Common/HIDParser.c **** 				if (CurrCollectionPath == NULL)
 212:../../LUFA-111009/LUFA/Drivers/USB/Class/Common/HIDParser.c **** 				  return HID_PARSE_UnexpectedEndCollection;
 213:../../LUFA-111009/LUFA/Drivers/USB/Class/Common/HIDParser.c **** 
 214:../../LUFA-111009/LUFA/Drivers/USB/Class/Common/HIDParser.c **** 				CurrCollectionPath = CurrCollectionPath->Parent;
 215:../../LUFA-111009/LUFA/Drivers/USB/Class/Common/HIDParser.c **** 				break;
 216:../../LUFA-111009/LUFA/Drivers/USB/Class/Common/HIDParser.c **** 			case HID_RI_INPUT(0):
 217:../../LUFA-111009/LUFA/Drivers/USB/Class/Common/HIDParser.c **** 			case HID_RI_OUTPUT(0):
 218:../../LUFA-111009/LUFA/Drivers/USB/Class/Common/HIDParser.c **** 			case HID_RI_FEATURE(0):
 219:../../LUFA-111009/LUFA/Drivers/USB/Class/Common/HIDParser.c **** 				for (uint8_t ReportItemNum = 0; ReportItemNum < CurrStateTable->ReportCount; ReportItemNum++)
 220:../../LUFA-111009/LUFA/Drivers/USB/Class/Common/HIDParser.c **** 				{
 221:../../LUFA-111009/LUFA/Drivers/USB/Class/Common/HIDParser.c **** 					HID_ReportItem_t NewReportItem;
 222:../../LUFA-111009/LUFA/Drivers/USB/Class/Common/HIDParser.c **** 
 223:../../LUFA-111009/LUFA/Drivers/USB/Class/Common/HIDParser.c **** 					memcpy(&NewReportItem.Attributes,
 224:../../LUFA-111009/LUFA/Drivers/USB/Class/Common/HIDParser.c **** 					       &CurrStateTable->Attributes,
 225:../../LUFA-111009/LUFA/Drivers/USB/Class/Common/HIDParser.c **** 					       sizeof(HID_ReportItem_Attributes_t));
 226:../../LUFA-111009/LUFA/Drivers/USB/Class/Common/HIDParser.c **** 
 227:../../LUFA-111009/LUFA/Drivers/USB/Class/Common/HIDParser.c **** 					NewReportItem.ItemFlags      = ReportItemData;
 228:../../LUFA-111009/LUFA/Drivers/USB/Class/Common/HIDParser.c **** 					NewReportItem.CollectionPath = CurrCollectionPath;
 229:../../LUFA-111009/LUFA/Drivers/USB/Class/Common/HIDParser.c **** 					NewReportItem.ReportID       = CurrStateTable->ReportID;
 230:../../LUFA-111009/LUFA/Drivers/USB/Class/Common/HIDParser.c **** 
 231:../../LUFA-111009/LUFA/Drivers/USB/Class/Common/HIDParser.c **** 					if (UsageListSize)
 232:../../LUFA-111009/LUFA/Drivers/USB/Class/Common/HIDParser.c **** 					{
 233:../../LUFA-111009/LUFA/Drivers/USB/Class/Common/HIDParser.c **** 						NewReportItem.Attributes.Usage.Usage = UsageList[0];
 234:../../LUFA-111009/LUFA/Drivers/USB/Class/Common/HIDParser.c **** 
 235:../../LUFA-111009/LUFA/Drivers/USB/Class/Common/HIDParser.c **** 						for (uint8_t i = 0; i < UsageListSize; i++)
 236:../../LUFA-111009/LUFA/Drivers/USB/Class/Common/HIDParser.c **** 						  UsageList[i] = UsageList[i + 1];
 237:../../LUFA-111009/LUFA/Drivers/USB/Class/Common/HIDParser.c **** 
 238:../../LUFA-111009/LUFA/Drivers/USB/Class/Common/HIDParser.c **** 						UsageListSize--;
 239:../../LUFA-111009/LUFA/Drivers/USB/Class/Common/HIDParser.c **** 					}
 240:../../LUFA-111009/LUFA/Drivers/USB/Class/Common/HIDParser.c **** 					else if (UsageMinMax.Minimum <= UsageMinMax.Maximum)
 241:../../LUFA-111009/LUFA/Drivers/USB/Class/Common/HIDParser.c **** 					{
 242:../../LUFA-111009/LUFA/Drivers/USB/Class/Common/HIDParser.c **** 						NewReportItem.Attributes.Usage.Usage = UsageMinMax.Minimum++;
 243:../../LUFA-111009/LUFA/Drivers/USB/Class/Common/HIDParser.c **** 					}
 244:../../LUFA-111009/LUFA/Drivers/USB/Class/Common/HIDParser.c **** 
 245:../../LUFA-111009/LUFA/Drivers/USB/Class/Common/HIDParser.c **** 					uint8_t ItemTypeTag = (HIDReportItem & (HID_RI_TYPE_MASK | HID_RI_TAG_MASK));
 246:../../LUFA-111009/LUFA/Drivers/USB/Class/Common/HIDParser.c **** 
 247:../../LUFA-111009/LUFA/Drivers/USB/Class/Common/HIDParser.c **** 					if (ItemTypeTag == HID_RI_INPUT(0))
 248:../../LUFA-111009/LUFA/Drivers/USB/Class/Common/HIDParser.c **** 					  NewReportItem.ItemType = HID_REPORT_ITEM_In;
 249:../../LUFA-111009/LUFA/Drivers/USB/Class/Common/HIDParser.c **** 					else if (ItemTypeTag == HID_RI_OUTPUT(0))
 250:../../LUFA-111009/LUFA/Drivers/USB/Class/Common/HIDParser.c **** 					  NewReportItem.ItemType = HID_REPORT_ITEM_Out;
 251:../../LUFA-111009/LUFA/Drivers/USB/Class/Common/HIDParser.c **** 					else
 252:../../LUFA-111009/LUFA/Drivers/USB/Class/Common/HIDParser.c **** 					  NewReportItem.ItemType = HID_REPORT_ITEM_Feature;
 253:../../LUFA-111009/LUFA/Drivers/USB/Class/Common/HIDParser.c **** 
 254:../../LUFA-111009/LUFA/Drivers/USB/Class/Common/HIDParser.c **** 					NewReportItem.BitOffset = CurrReportIDInfo->ReportSizeBits[NewReportItem.ItemType];
 255:../../LUFA-111009/LUFA/Drivers/USB/Class/Common/HIDParser.c **** 
 256:../../LUFA-111009/LUFA/Drivers/USB/Class/Common/HIDParser.c **** 					CurrReportIDInfo->ReportSizeBits[NewReportItem.ItemType] += CurrStateTable->Attributes.BitSize
 257:../../LUFA-111009/LUFA/Drivers/USB/Class/Common/HIDParser.c **** 
 258:../../LUFA-111009/LUFA/Drivers/USB/Class/Common/HIDParser.c **** 					ParserData->LargestReportSizeBits = MAX(ParserData->LargestReportSizeBits, CurrReportIDInfo->R
 178               		.loc 1 258 0
 179 009c 9A01      		movw r18,r20
 180 009e 2A52      		subi r18,42
 181 00a0 3C4F      		sbci r19,-4
 182 00a2 ED96      		adiw r28,123-62
 183 00a4 3FAF      		std Y+63,r19
 184 00a6 2EAF      		std Y+62,r18
 185 00a8 ED97      		sbiw r28,123-62
 186               	.LBE4:
 187               	.LBE3:
 188               	.LBB9:
 183:../../LUFA-111009/LUFA/Drivers/USB/Class/Common/HIDParser.c **** 						if (CurrCollectionPath == &ParserData->CollectionPaths[HID_MAX_COLLECTIONS - 1])
 189               		.loc 1 183 0
 190 00aa 9A01      		movw r18,r20
 191 00ac 2857      		subi r18,120
 192 00ae 3C4F      		sbci r19,-4
 193 00b0 CD57      		subi r28,lo8(-131)
 194 00b2 DF4F      		sbci r29,hi8(-131)
 195 00b4 3983      		std Y+1,r19
 196 00b6 2883      		st Y,r18
 197 00b8 C358      		subi r28,lo8(131)
 198 00ba D040      		sbci r29,hi8(131)
 199               	.LBE9:
 131:../../LUFA-111009/LUFA/Drivers/USB/Class/Common/HIDParser.c **** 				if (ParserData->UsingReportIDs)
 200               		.loc 1 131 0
 201 00bc 9A01      		movw r18,r20
 202 00be 2852      		subi r18,40
 203 00c0 3C4F      		sbci r19,-4
 204 00c2 EF96      		adiw r28,125-62
 205 00c4 3FAF      		std Y+63,r19
 206 00c6 2EAF      		std Y+62,r18
 207 00c8 EF97      		sbiw r28,125-62
 208               	.LBB10:
 135:../../LUFA-111009/LUFA/Drivers/USB/Class/Common/HIDParser.c **** 					for (uint8_t i = 0; i < ParserData->TotalDeviceReports; i++)
 209               		.loc 1 135 0
 210 00ca CB57      		subi r28,lo8(-133)
 211 00cc DF4F      		sbci r29,hi8(-133)
 212 00ce B983      		std Y+1,r27
 213 00d0 A883      		st Y,r26
 214 00d2 C558      		subi r28,lo8(133)
 215 00d4 D040      		sbci r29,hi8(133)
 216               	.LVL5:
 217               	.L2:
 218               	.LBE10:
 219               	.LBE2:
  53:../../LUFA-111009/LUFA/Drivers/USB/Class/Common/HIDParser.c **** 	while (ReportSize)
 220               		.loc 1 53 0 discriminator 1
 221 00d6 6115      		cp r22,__zero_reg__
 222 00d8 7105      		cpc r23,__zero_reg__
 223 00da 01F4      		brne .+2
 224 00dc 00C0      		rjmp .L91
 225               	.LBB17:
  55:../../LUFA-111009/LUFA/Drivers/USB/Class/Common/HIDParser.c **** 		uint8_t  HIDReportItem  = *ReportData;
 226               		.loc 1 55 0
 227 00de D101      		movw r26,r2
 228 00e0 BC91      		ld r27,X
 229 00e2 E996      		adiw r28,120-63
 230 00e4 BFAF      		std Y+63,r27
 231 00e6 E997      		sbiw r28,120-63
 232               	.LVL6:
  61:../../LUFA-111009/LUFA/Drivers/USB/Class/Common/HIDParser.c **** 		switch (HIDReportItem & HID_RI_DATA_SIZE_MASK)
 233               		.loc 1 61 0
 234 00e8 8B2F      		mov r24,r27
 235 00ea 8370      		andi r24,lo8(3)
 236 00ec 8230      		cpi r24,lo8(2)
 237 00ee 01F0      		breq .L4
 238 00f0 8330      		cpi r24,lo8(3)
 239 00f2 01F0      		breq .L5
 240 00f4 8130      		cpi r24,lo8(1)
 241 00f6 01F0      		breq .L6
  58:../../LUFA-111009/LUFA/Drivers/USB/Class/Common/HIDParser.c **** 		ReportData++;
 242               		.loc 1 58 0
 243 00f8 EFEF      		ldi r30,-1
 244 00fa 2E1A      		sub r2,r30
 245 00fc 3E0A      		sbc r3,r30
 246               	.LVL7:
  59:../../LUFA-111009/LUFA/Drivers/USB/Class/Common/HIDParser.c **** 		ReportSize--;
 247               		.loc 1 59 0
 248 00fe 6150      		subi r22,1
 249 0100 7109      		sbc r23,__zero_reg__
 250               	.LVL8:
  56:../../LUFA-111009/LUFA/Drivers/USB/Class/Common/HIDParser.c **** 		uint32_t ReportItemData = 0;
 251               		.loc 1 56 0
 252 0102 C12C      		mov r12,__zero_reg__
 253 0104 D12C      		mov r13,__zero_reg__
 254 0106 7601      		movw r14,r12
 255 0108 00C0      		rjmp .L7
 256               	.LVL9:
 257               	.L5:
  64:../../LUFA-111009/LUFA/Drivers/USB/Class/Common/HIDParser.c **** 				ReportItemData  = le32_to_cpu(*((uint32_t*)ReportData));
 258               		.loc 1 64 0
 259 010a D101      		movw r26,r2
 260 010c 1196      		adiw r26,1
 261 010e CD90      		ld r12,X+
 262 0110 DD90      		ld r13,X+
 263 0112 ED90      		ld r14,X+
 264 0114 FC90      		ld r15,X
 265 0116 1497      		sbiw r26,1+3
 266               	.LVL10:
  65:../../LUFA-111009/LUFA/Drivers/USB/Class/Common/HIDParser.c **** 				ReportSize     -= 4;
 267               		.loc 1 65 0
 268 0118 6550      		subi r22,5
 269 011a 7109      		sbc r23,__zero_reg__
 270               	.LVL11:
  66:../../LUFA-111009/LUFA/Drivers/USB/Class/Common/HIDParser.c **** 				ReportData     += 4;
 271               		.loc 1 66 0
 272 011c B5E0      		ldi r27,5
 273 011e 2B0E      		add r2,r27
 274 0120 311C      		adc r3,__zero_reg__
 275               	.LVL12:
  67:../../LUFA-111009/LUFA/Drivers/USB/Class/Common/HIDParser.c **** 				break;
 276               		.loc 1 67 0
 277 0122 00C0      		rjmp .L7
 278               	.LVL13:
 279               	.L4:
  69:../../LUFA-111009/LUFA/Drivers/USB/Class/Common/HIDParser.c **** 				ReportItemData  = le16_to_cpu(*((uint16_t*)ReportData));
 280               		.loc 1 69 0
 281 0124 F101      		movw r30,r2
 282 0126 C180      		ldd r12,Z+1
 283 0128 D280      		ldd r13,Z+2
 284 012a E12C      		mov r14,__zero_reg__
 285 012c F12C      		mov r15,__zero_reg__
 286               	.LVL14:
  70:../../LUFA-111009/LUFA/Drivers/USB/Class/Common/HIDParser.c **** 				ReportSize     -= 2;
 287               		.loc 1 70 0
 288 012e 6350      		subi r22,3
 289 0130 7109      		sbc r23,__zero_reg__
 290               	.LVL15:
  71:../../LUFA-111009/LUFA/Drivers/USB/Class/Common/HIDParser.c **** 				ReportData     += 2;
 291               		.loc 1 71 0
 292 0132 F3E0      		ldi r31,3
 293 0134 2F0E      		add r2,r31
 294 0136 311C      		adc r3,__zero_reg__
 295               	.LVL16:
  72:../../LUFA-111009/LUFA/Drivers/USB/Class/Common/HIDParser.c **** 				break;
 296               		.loc 1 72 0
 297 0138 00C0      		rjmp .L7
 298               	.LVL17:
 299               	.L6:
  74:../../LUFA-111009/LUFA/Drivers/USB/Class/Common/HIDParser.c **** 				ReportItemData  = *((uint8_t*)ReportData);
 300               		.loc 1 74 0
 301 013a D101      		movw r26,r2
 302 013c 1196      		adiw r26,1
 303 013e CC90      		ld r12,X
 304 0140 D12C      		mov r13,__zero_reg__
 305 0142 E12C      		mov r14,__zero_reg__
 306 0144 F12C      		mov r15,__zero_reg__
 307               	.LVL18:
  75:../../LUFA-111009/LUFA/Drivers/USB/Class/Common/HIDParser.c **** 				ReportSize     -= 1;
 308               		.loc 1 75 0
 309 0146 6250      		subi r22,2
 310 0148 7109      		sbc r23,__zero_reg__
 311               	.LVL19:
  76:../../LUFA-111009/LUFA/Drivers/USB/Class/Common/HIDParser.c **** 				ReportData     += 1;
 312               		.loc 1 76 0
 313 014a B2E0      		ldi r27,2
 314 014c 2B0E      		add r2,r27
 315 014e 311C      		adc r3,__zero_reg__
 316               	.LVL20:
 317               	.L7:
  80:../../LUFA-111009/LUFA/Drivers/USB/Class/Common/HIDParser.c **** 		switch (HIDReportItem & (HID_RI_TYPE_MASK | HID_RI_TAG_MASK))
 318               		.loc 1 80 0
 319 0150 E996      		adiw r28,120-63
 320 0152 2FAD      		ldd r18,Y+63
 321 0154 E997      		sbiw r28,120-63
 322 0156 2C7F      		andi r18,lo8(-4)
 323 0158 2436      		cpi r18,lo8(100)
 324 015a 01F4      		brne .+2
 325 015c 00C0      		rjmp .L9
 326 015e 00F4      		brsh .L10
 327 0160 2432      		cpi r18,lo8(36)
 328 0162 01F4      		brne .+2
 329 0164 00C0      		rjmp .L11
 330 0166 00F4      		brsh .L12
 331 0168 2830      		cpi r18,lo8(8)
 332 016a 01F4      		brne .+2
 333 016c 00C0      		rjmp .L13
 334 016e 00F4      		brsh .L14
 335 0170 2430      		cpi r18,lo8(4)
 336 0172 01F0      		breq .+2
 337 0174 00C0      		rjmp .L8
 102:../../LUFA-111009/LUFA/Drivers/USB/Class/Common/HIDParser.c **** 				CurrStateTable->Attributes.Usage.Page       = ReportItemData;
 338               		.loc 1 102 0
 339 0176 D801      		movw r26,r16
 340               	.LVL21:
 341 0178 1296      		adiw r26,1+1
 342 017a DC92      		st X,r13
 343 017c CE92      		st -X,r12
 344 017e 1197      		sbiw r26,1
 103:../../LUFA-111009/LUFA/Drivers/USB/Class/Common/HIDParser.c **** 				break;
 345               		.loc 1 103 0
 346 0180 00C0      		rjmp .L8
 347               	.LVL22:
 348               	.L14:
  80:../../LUFA-111009/LUFA/Drivers/USB/Class/Common/HIDParser.c **** 		switch (HIDReportItem & (HID_RI_TYPE_MASK | HID_RI_TAG_MASK))
 349               		.loc 1 80 0
 350 0182 2431      		cpi r18,lo8(20)
 351 0184 01F4      		brne .+2
 352 0186 00C0      		rjmp .L16
 353 0188 2831      		cpi r18,lo8(24)
 354 018a 01F0      		breq .+2
 355 018c 00C0      		rjmp .L8
 356 018e 4601      		movw r8,r12
 357 0190 5701      		movw r10,r14
 358               	.LVL23:
 359 0192 00C0      		rjmp .L8
 360               	.LVL24:
 361               	.L12:
 362 0194 2433      		cpi r18,lo8(52)
 363 0196 01F4      		brne .+2
 364 0198 00C0      		rjmp .L18
 365 019a 00F4      		brsh .L19
 366 019c 2832      		cpi r18,lo8(40)
 367 019e 01F0      		breq .+2
 368 01a0 00C0      		rjmp .L8
 369               	.LVL25:
 169:../../LUFA-111009/LUFA/Drivers/USB/Class/Common/HIDParser.c **** 				break;
 370               		.loc 1 169 0
 371 01a2 2601      		movw r4,r12
 372 01a4 3701      		movw r6,r14
 373 01a6 00C0      		rjmp .L8
 374               	.LVL26:
 375               	.L19:
  80:../../LUFA-111009/LUFA/Drivers/USB/Class/Common/HIDParser.c **** 		switch (HIDReportItem & (HID_RI_TYPE_MASK | HID_RI_TAG_MASK))
 376               		.loc 1 80 0
 377 01a8 2434      		cpi r18,lo8(68)
 378 01aa 01F4      		brne .+2
 379 01ac 00C0      		rjmp .L21
 380 01ae 2435      		cpi r18,lo8(84)
 381 01b0 01F0      		breq .+2
 382 01b2 00C0      		rjmp .L8
 117:../../LUFA-111009/LUFA/Drivers/USB/Class/Common/HIDParser.c **** 				CurrStateTable->Attributes.Unit.Exponent    = ReportItemData;
 383               		.loc 1 117 0
 384 01b4 F801      		movw r30,r16
 385 01b6 C186      		std Z+9,r12
 386               	.LVL27:
 118:../../LUFA-111009/LUFA/Drivers/USB/Class/Common/HIDParser.c **** 				break;
 387               		.loc 1 118 0
 388 01b8 00C0      		rjmp .L8
 389               	.LVL28:
 390               	.L10:
  80:../../LUFA-111009/LUFA/Drivers/USB/Class/Common/HIDParser.c **** 		switch (HIDReportItem & (HID_RI_TYPE_MASK | HID_RI_TAG_MASK))
 391               		.loc 1 80 0
 392 01ba 2439      		cpi r18,lo8(-108)
 393 01bc 01F4      		brne .+2
 394 01be 00C0      		rjmp .L23
 395 01c0 00F4      		brsh .L24
 396 01c2 2038      		cpi r18,lo8(-128)
 397 01c4 01F0      		breq .L25
 398 01c6 00F4      		brsh .L26
 399 01c8 2437      		cpi r18,lo8(116)
 400 01ca 01F0      		breq .+2
 401 01cc 00C0      		rjmp .L8
 123:../../LUFA-111009/LUFA/Drivers/USB/Class/Common/HIDParser.c **** 				CurrStateTable->Attributes.BitSize          = ReportItemData;
 402               		.loc 1 123 0
 403 01ce F801      		movw r30,r16
 404 01d0 C082      		st Z,r12
 405               	.LVL29:
 124:../../LUFA-111009/LUFA/Drivers/USB/Class/Common/HIDParser.c **** 				break;
 406               		.loc 1 124 0
 407 01d2 00C0      		rjmp .L8
 408               	.LVL30:
 409               	.L26:
  80:../../LUFA-111009/LUFA/Drivers/USB/Class/Common/HIDParser.c **** 		switch (HIDReportItem & (HID_RI_TYPE_MASK | HID_RI_TAG_MASK))
 410               		.loc 1 80 0
 411 01d4 2438      		cpi r18,lo8(-124)
 412 01d6 01F4      		brne .+2
 413 01d8 00C0      		rjmp .L28
 414 01da 2039      		cpi r18,lo8(-112)
 415 01dc 01F0      		breq .L25
 416 01de 00C0      		rjmp .L8
 417               	.L24:
 418 01e0 203B      		cpi r18,lo8(-80)
 419 01e2 01F0      		breq .L25
 420 01e4 00F4      		brsh .L29
 421 01e6 203A      		cpi r18,lo8(-96)
 422 01e8 01F4      		brne .+2
 423 01ea 00C0      		rjmp .L30
 424 01ec 243A      		cpi r18,lo8(-92)
 425 01ee 01F0      		breq .L31
 426 01f0 00C0      		rjmp .L8
 427               	.L29:
 428 01f2 243B      		cpi r18,lo8(-76)
 429 01f4 01F0      		breq .L32
 430 01f6 203C      		cpi r18,lo8(-64)
 431 01f8 01F4      		brne .+2
 432 01fa 00C0      		rjmp .L33
 433 01fc 00C0      		rjmp .L8
 434               	.L25:
 435 01fe 30E0      		ldi r19,0
 436               	.LBB11:
 437               	.LBB6:
 259:../../LUFA-111009/LUFA/Drivers/USB/Class/Common/HIDParser.c **** 
 260:../../LUFA-111009/LUFA/Drivers/USB/Class/Common/HIDParser.c **** 					if (ParserData->TotalReportItems == HID_MAX_REPORTITEMS)
 261:../../LUFA-111009/LUFA/Drivers/USB/Class/Common/HIDParser.c **** 					  return HID_PARSE_InsufficientReportItems;
 262:../../LUFA-111009/LUFA/Drivers/USB/Class/Common/HIDParser.c **** 
 263:../../LUFA-111009/LUFA/Drivers/USB/Class/Common/HIDParser.c **** 					memcpy(&ParserData->ReportItems[ParserData->TotalReportItems],
 264:../../LUFA-111009/LUFA/Drivers/USB/Class/Common/HIDParser.c **** 					       &NewReportItem, sizeof(HID_ReportItem_t));
 265:../../LUFA-111009/LUFA/Drivers/USB/Class/Common/HIDParser.c **** 
 266:../../LUFA-111009/LUFA/Drivers/USB/Class/Common/HIDParser.c **** 					if (!(ReportItemData & HID_IOF_CONSTANT) && CALLBACK_HIDParser_FilterHIDReportItem(&NewReportI
 438               		.loc 1 266 0
 439 0200 D701      		movw r26,r14
 440 0202 C601      		movw r24,r12
 441 0204 8170      		andi r24,1
 442 0206 9927      		clr r25
 443 0208 AA27      		clr r26
 444 020a BB27      		clr r27
 445 020c C158      		subi r28,lo8(-127)
 446 020e DF4F      		sbci r29,hi8(-127)
 447 0210 8883      		st Y,r24
 448 0212 9983      		std Y+1,r25
 449 0214 AA83      		std Y+2,r26
 450 0216 BB83      		std Y+3,r27
 451 0218 CF57      		subi r28,lo8(127)
 452 021a D040      		sbci r29,hi8(127)
 453 021c 00C0      		rjmp .L34
 454               	.L31:
 455               	.LBE6:
 456               	.LBE11:
  83:../../LUFA-111009/LUFA/Drivers/USB/Class/Common/HIDParser.c **** 				if (CurrStateTable == &StateTable[HID_STATETABLE_STACK_DEPTH - 1])
 457               		.loc 1 83 0
 458 021e CE01      		movw r24,r28
 459 0220 4D96      		adiw r24,29
 460 0222 0817      		cp r16,r24
 461 0224 1907      		cpc r17,r25
 462 0226 01F4      		brne .+2
 463 0228 00C0      		rjmp .L64
  86:../../LUFA-111009/LUFA/Drivers/USB/Class/Common/HIDParser.c **** 				memcpy((CurrStateTable + 1),
 464               		.loc 1 86 0
 465 022a C801      		movw r24,r16
 466 022c 4C96      		adiw r24,28
 467 022e 2AE2      		ldi r18,lo8(42)
 468 0230 F801      		movw r30,r16
 469 0232 DC01      		movw r26,r24
 470               	.LVL31:
 471               		0:
 472 0234 0190      		ld r0,Z+
 473 0236 0D92      		st X+,r0
 474 0238 2A95      		dec r18
 475 023a 01F4      		brne 0b
 476               	.LVL32:
  90:../../LUFA-111009/LUFA/Drivers/USB/Class/Common/HIDParser.c **** 				CurrStateTable++;
 477               		.loc 1 90 0
 478 023c 8C01      		movw r16,r24
  91:../../LUFA-111009/LUFA/Drivers/USB/Class/Common/HIDParser.c **** 				break;
 479               		.loc 1 91 0
 480 023e 00C0      		rjmp .L8
 481               	.LVL33:
 482               	.L32:
  93:../../LUFA-111009/LUFA/Drivers/USB/Class/Common/HIDParser.c **** 				if (CurrStateTable == &StateTable[0])
 483               		.loc 1 93 0
 484 0240 CE01      		movw r24,r28
 485 0242 0196      		adiw r24,1
 486 0244 0817      		cp r16,r24
 487 0246 1907      		cpc r17,r25
 488 0248 01F4      		brne .+2
 489 024a 00C0      		rjmp .L65
  96:../../LUFA-111009/LUFA/Drivers/USB/Class/Common/HIDParser.c **** 				CurrStateTable--;
 490               		.loc 1 96 0
 491 024c 0C51      		subi r16,28
 492 024e 1109      		sbc r17,__zero_reg__
 493               	.LVL34:
  97:../../LUFA-111009/LUFA/Drivers/USB/Class/Common/HIDParser.c **** 				break;
 494               		.loc 1 97 0
 495 0250 00C0      		rjmp .L8
 496               	.L16:
 105:../../LUFA-111009/LUFA/Drivers/USB/Class/Common/HIDParser.c **** 				CurrStateTable->Attributes.Logical.Minimum  = ReportItemData;
 497               		.loc 1 105 0
 498 0252 F801      		movw r30,r16
 499 0254 C286      		std Z+10,r12
 500 0256 D386      		std Z+11,r13
 501 0258 E486      		std Z+12,r14
 502 025a F586      		std Z+13,r15
 106:../../LUFA-111009/LUFA/Drivers/USB/Class/Common/HIDParser.c **** 				break;
 503               		.loc 1 106 0
 504 025c 00C0      		rjmp .L8
 505               	.LVL35:
 506               	.L11:
 108:../../LUFA-111009/LUFA/Drivers/USB/Class/Common/HIDParser.c **** 				CurrStateTable->Attributes.Logical.Maximum  = ReportItemData;
 507               		.loc 1 108 0
 508 025e D801      		movw r26,r16
 509               	.LVL36:
 510 0260 1E96      		adiw r26,14
 511 0262 CD92      		st X+,r12
 512 0264 DD92      		st X+,r13
 513 0266 ED92      		st X+,r14
 514 0268 FC92      		st X,r15
 515 026a 5197      		sbiw r26,14+3
 109:../../LUFA-111009/LUFA/Drivers/USB/Class/Common/HIDParser.c **** 				break;
 516               		.loc 1 109 0
 517 026c 00C0      		rjmp .L8
 518               	.LVL37:
 519               	.L18:
 111:../../LUFA-111009/LUFA/Drivers/USB/Class/Common/HIDParser.c **** 				CurrStateTable->Attributes.Physical.Minimum = ReportItemData;
 520               		.loc 1 111 0
 521 026e F801      		movw r30,r16
 522 0270 C28A      		std Z+18,r12
 523 0272 D38A      		std Z+19,r13
 524 0274 E48A      		std Z+20,r14
 525 0276 F58A      		std Z+21,r15
 526               	.LVL38:
 112:../../LUFA-111009/LUFA/Drivers/USB/Class/Common/HIDParser.c **** 				break;
 527               		.loc 1 112 0
 528 0278 00C0      		rjmp .L8
 529               	.LVL39:
 530               	.L21:
 114:../../LUFA-111009/LUFA/Drivers/USB/Class/Common/HIDParser.c **** 				CurrStateTable->Attributes.Physical.Maximum = ReportItemData;
 531               		.loc 1 114 0
 532 027a D801      		movw r26,r16
 533               	.LVL40:
 534 027c 5696      		adiw r26,22
 535 027e CD92      		st X+,r12
 536 0280 DD92      		st X+,r13
 537 0282 ED92      		st X+,r14
 538 0284 FC92      		st X,r15
 539 0286 5997      		sbiw r26,22+3
 115:../../LUFA-111009/LUFA/Drivers/USB/Class/Common/HIDParser.c **** 				break;
 540               		.loc 1 115 0
 541 0288 00C0      		rjmp .L8
 542               	.LVL41:
 543               	.L9:
 120:../../LUFA-111009/LUFA/Drivers/USB/Class/Common/HIDParser.c **** 				CurrStateTable->Attributes.Unit.Type        = ReportItemData;
 544               		.loc 1 120 0
 545 028a D801      		movw r26,r16
 546               	.LVL42:
 547 028c 1596      		adiw r26,5
 548 028e CD92      		st X+,r12
 549 0290 DD92      		st X+,r13
 550 0292 ED92      		st X+,r14
 551 0294 FC92      		st X,r15
 552 0296 1897      		sbiw r26,5+3
 121:../../LUFA-111009/LUFA/Drivers/USB/Class/Common/HIDParser.c **** 				break;
 553               		.loc 1 121 0
 554 0298 00C0      		rjmp .L8
 555               	.LVL43:
 556               	.L23:
 126:../../LUFA-111009/LUFA/Drivers/USB/Class/Common/HIDParser.c **** 				CurrStateTable->ReportCount                 = ReportItemData;
 557               		.loc 1 126 0
 558 029a D801      		movw r26,r16
 559               	.LVL44:
 560 029c 5A96      		adiw r26,26
 561 029e CC92      		st X,r12
 127:../../LUFA-111009/LUFA/Drivers/USB/Class/Common/HIDParser.c **** 				break;
 562               		.loc 1 127 0
 563 02a0 00C0      		rjmp .L8
 564               	.LVL45:
 565               	.L28:
 129:../../LUFA-111009/LUFA/Drivers/USB/Class/Common/HIDParser.c **** 				CurrStateTable->ReportID                    = ReportItemData;
 566               		.loc 1 129 0
 567 02a2 AC2D      		mov r26,r12
 568               	.LVL46:
 569 02a4 F801      		movw r30,r16
 570 02a6 C38E      		std Z+27,r12
 131:../../LUFA-111009/LUFA/Drivers/USB/Class/Common/HIDParser.c **** 				if (ParserData->UsingReportIDs)
 571               		.loc 1 131 0
 572 02a8 EF96      		adiw r28,125-62
 573 02aa EEAD      		ldd r30,Y+62
 574 02ac FFAD      		ldd r31,Y+63
 575 02ae EF97      		sbiw r28,125-62
 576 02b0 8081      		ld r24,Z
 577 02b2 8823      		tst r24
 578 02b4 01F4      		brne .+2
 579 02b6 00C0      		rjmp .L36
 580               	.LBB12:
 135:../../LUFA-111009/LUFA/Drivers/USB/Class/Common/HIDParser.c **** 					for (uint8_t i = 0; i < ParserData->TotalDeviceReports; i++)
 581               		.loc 1 135 0
 582 02b8 CB57      		subi r28,lo8(-133)
 583 02ba DF4F      		sbci r29,hi8(-133)
 584 02bc E881      		ld r30,Y
 585 02be F981      		ldd r31,Y+1
 586 02c0 C558      		subi r28,lo8(133)
 587 02c2 D040      		sbci r29,hi8(133)
 588 02c4 B081      		ld r27,Z
 589 02c6 9A01      		movw r18,r20
 590 02c8 80E0      		ldi r24,0
 591 02ca 90E0      		ldi r25,0
 592               	.L37:
 593               	.LVL47:
 135:../../LUFA-111009/LUFA/Drivers/USB/Class/Common/HIDParser.c **** 					for (uint8_t i = 0; i < ParserData->TotalDeviceReports; i++)
 594               		.loc 1 135 0 is_stmt 0 discriminator 1
 595 02cc 8B17      		cp r24,r27
 596 02ce 00F4      		brsh .L92
 137:../../LUFA-111009/LUFA/Drivers/USB/Class/Common/HIDParser.c **** 						if (ParserData->ReportIDSizes[i].ReportID == CurrStateTable->ReportID)
 597               		.loc 1 137 0 is_stmt 1
 598 02d0 7C01      		movw r14,r24
 599 02d2 F901      		movw r30,r18
 600 02d4 E057      		subi r30,112
 601 02d6 FC4F      		sbci r31,-4
 602 02d8 E081      		ld r30,Z
 603 02da 0196      		adiw r24,1
 604               	.LVL48:
 605 02dc 295F      		subi r18,-7
 606 02de 3F4F      		sbci r19,-1
 607 02e0 EA13      		cpse r30,r26
 608 02e2 00C0      		rjmp .L37
 139:../../LUFA-111009/LUFA/Drivers/USB/Class/Common/HIDParser.c **** 							CurrReportIDInfo = &ParserData->ReportIDSizes[i];
 609               		.loc 1 139 0
 610 02e4 27E0      		ldi r18,lo8(7)
 611 02e6 2E9D      		mul r18,r14
 612 02e8 C001      		movw r24,r0
 613 02ea 2F9D      		mul r18,r15
 614 02ec 900D      		add r25,r0
 615 02ee 1124      		clr __zero_reg__
 616 02f0 9C01      		movw r18,r24
 617 02f2 2057      		subi r18,112
 618 02f4 3C4F      		sbci r19,-4
 619 02f6 240F      		add r18,r20
 620 02f8 351F      		adc r19,r21
 621 02fa E896      		adiw r28,118-62
 622 02fc 3FAF      		std Y+63,r19
 623 02fe 2EAF      		std Y+62,r18
 624 0300 E897      		sbiw r28,118-62
 625               	.LVL49:
 626 0302 00C0      		rjmp .L36
 627               	.LVL50:
 628               	.L92:
 629               	.LBE12:
 146:../../LUFA-111009/LUFA/Drivers/USB/Class/Common/HIDParser.c **** 						if (ParserData->TotalDeviceReports == HID_MAX_REPORT_IDS)
 630               		.loc 1 146 0
 631 0304 BA30      		cpi r27,lo8(10)
 632 0306 01F4      		brne .+2
 633 0308 00C0      		rjmp .L93
 149:../../LUFA-111009/LUFA/Drivers/USB/Class/Common/HIDParser.c **** 						CurrReportIDInfo = &ParserData->ReportIDSizes[ParserData->TotalDeviceReports++];
 634               		.loc 1 149 0
 635 030a 81E0      		ldi r24,lo8(1)
 636               	.LVL51:
 637 030c 8B0F      		add r24,r27
 638 030e EB96      		adiw r28,121-62
 639 0310 EEAD      		ldd r30,Y+62
 640 0312 FFAD      		ldd r31,Y+63
 641 0314 EB97      		sbiw r28,121-62
 642 0316 8083      		st Z,r24
 643 0318 87E0      		ldi r24,lo8(7)
 644 031a 9A01      		movw r18,r20
 645 031c 8B9F      		mul r24,r27
 646 031e 200D      		add r18,r0
 647 0320 311D      		adc r19,r1
 648 0322 1124      		clr __zero_reg__
 649 0324 2057      		subi r18,112
 650 0326 3C4F      		sbci r19,-4
 651 0328 E896      		adiw r28,118-62
 652 032a 3FAF      		std Y+63,r19
 653 032c 2EAF      		std Y+62,r18
 654 032e E897      		sbiw r28,118-62
 655               	.LVL52:
 150:../../LUFA-111009/LUFA/Drivers/USB/Class/Common/HIDParser.c **** 						memset(CurrReportIDInfo, 0x00, sizeof(HID_ReportSizeInfo_t));
 656               		.loc 1 150 0
 657 0330 D901      		movw r26,r18
 658               		0:
 659 0332 1D92      		st X+,__zero_reg__
 660 0334 8A95      		dec r24
 661 0336 01F4      		brne 0b
 662               	.LVL53:
 663               	.L36:
 154:../../LUFA-111009/LUFA/Drivers/USB/Class/Common/HIDParser.c **** 				ParserData->UsingReportIDs = true;
 664               		.loc 1 154 0
 665 0338 81E0      		ldi r24,lo8(1)
 666 033a EF96      		adiw r28,125-62
 667 033c EEAD      		ldd r30,Y+62
 668 033e FFAD      		ldd r31,Y+63
 669 0340 EF97      		sbiw r28,125-62
 670 0342 8083      		st Z,r24
 156:../../LUFA-111009/LUFA/Drivers/USB/Class/Common/HIDParser.c **** 				CurrReportIDInfo->ReportID = CurrStateTable->ReportID;
 671               		.loc 1 156 0
 672 0344 D801      		movw r26,r16
 673 0346 5B96      		adiw r26,27
 674 0348 8C91      		ld r24,X
 675 034a E896      		adiw r28,118-62
 676 034c EEAD      		ldd r30,Y+62
 677 034e FFAD      		ldd r31,Y+63
 678 0350 E897      		sbiw r28,118-62
 679 0352 8083      		st Z,r24
 157:../../LUFA-111009/LUFA/Drivers/USB/Class/Common/HIDParser.c **** 				break;
 680               		.loc 1 157 0
 681 0354 00C0      		rjmp .L8
 682               	.LVL54:
 683               	.L13:
 159:../../LUFA-111009/LUFA/Drivers/USB/Class/Common/HIDParser.c **** 				if (UsageListSize == HID_USAGE_STACK_DEPTH)
 684               		.loc 1 159 0
 685 0356 E496      		adiw r28,115-63
 686 0358 2FAD      		ldd r18,Y+63
 687 035a E497      		sbiw r28,115-63
 688 035c 2830      		cpi r18,lo8(8)
 689 035e 01F4      		brne .+2
 690 0360 00C0      		rjmp .L66
 691               	.LVL55:
 162:../../LUFA-111009/LUFA/Drivers/USB/Class/Common/HIDParser.c **** 				UsageList[UsageListSize++] = ReportItemData;
 692               		.loc 1 162 0
 693 0362 FE01      		movw r30,r28
 694 0364 ED59      		subi r30,-99
 695 0366 FF4F      		sbci r31,-1
 696 0368 E20F      		add r30,r18
 697 036a F11D      		adc r31,__zero_reg__
 698 036c E20F      		add r30,r18
 699 036e F11D      		adc r31,__zero_reg__
 700 0370 D182      		std Z+1,r13
 701 0372 C082      		st Z,r12
 702               	.LVL56:
 703 0374 2F5F      		subi r18,lo8(-(1))
 704               	.LVL57:
 705 0376 E496      		adiw r28,115-63
 706 0378 2FAF      		std Y+63,r18
 707 037a E497      		sbiw r28,115-63
 163:../../LUFA-111009/LUFA/Drivers/USB/Class/Common/HIDParser.c **** 				break;
 708               		.loc 1 163 0
 709 037c 00C0      		rjmp .L8
 710               	.LVL58:
 711               	.L30:
 171:../../LUFA-111009/LUFA/Drivers/USB/Class/Common/HIDParser.c **** 				if (CurrCollectionPath == NULL)
 712               		.loc 1 171 0
 713 037e E696      		adiw r28,116-62
 714 0380 2EAD      		ldd r18,Y+62
 715 0382 3FAD      		ldd r19,Y+63
 716 0384 E697      		sbiw r28,116-62
 717 0386 232B      		or r18,r19
 718 0388 01F4      		brne .L41
 173:../../LUFA-111009/LUFA/Drivers/USB/Class/Common/HIDParser.c **** 					CurrCollectionPath = &ParserData->CollectionPaths[0];
 719               		.loc 1 173 0
 720 038a 9A01      		movw r18,r20
 721 038c 275B      		subi r18,-73
 722 038e 3C4F      		sbci r19,-4
 723 0390 E696      		adiw r28,116-62
 724 0392 3FAF      		std Y+63,r19
 725 0394 2EAF      		std Y+62,r18
 726 0396 E697      		sbiw r28,116-62
 727               	.LVL59:
 728 0398 00C0      		rjmp .L42
 729               	.LVL60:
 730               	.L41:
 731               	.LBB13:
 179:../../LUFA-111009/LUFA/Drivers/USB/Class/Common/HIDParser.c **** 					CurrCollectionPath = &ParserData->CollectionPaths[1];
 732               		.loc 1 179 0
 733 039a FA01      		movw r30,r20
 734 039c E05B      		subi r30,-80
 735 039e FC4F      		sbci r31,-4
 736               	.LVL61:
 737               	.L43:
 181:../../LUFA-111009/LUFA/Drivers/USB/Class/Common/HIDParser.c **** 					while (CurrCollectionPath->Parent != NULL)
 738               		.loc 1 181 0 discriminator 1
 739 03a0 8581      		ldd r24,Z+5
 740 03a2 9681      		ldd r25,Z+6
 741 03a4 892B      		or r24,r25
 742 03a6 01F0      		breq .L94
 183:../../LUFA-111009/LUFA/Drivers/USB/Class/Common/HIDParser.c **** 						if (CurrCollectionPath == &ParserData->CollectionPaths[HID_MAX_COLLECTIONS - 1])
 743               		.loc 1 183 0
 744 03a8 CD57      		subi r28,lo8(-131)
 745 03aa DF4F      		sbci r29,hi8(-131)
 746 03ac 2881      		ld r18,Y
 747 03ae 3981      		ldd r19,Y+1
 748 03b0 C358      		subi r28,lo8(131)
 749 03b2 D040      		sbci r29,hi8(131)
 750 03b4 E217      		cp r30,r18
 751 03b6 F307      		cpc r31,r19
 752 03b8 01F4      		brne .+2
 753 03ba 00C0      		rjmp .L67
 186:../../LUFA-111009/LUFA/Drivers/USB/Class/Common/HIDParser.c **** 						CurrCollectionPath++;
 754               		.loc 1 186 0
 755 03bc 3796      		adiw r30,7
 756               	.LVL62:
 757 03be 00C0      		rjmp .L43
 758               	.L94:
 189:../../LUFA-111009/LUFA/Drivers/USB/Class/Common/HIDParser.c **** 					CurrCollectionPath->Parent = ParentCollectionPath;
 759               		.loc 1 189 0
 760 03c0 E696      		adiw r28,116-62
 761 03c2 2EAD      		ldd r18,Y+62
 762 03c4 3FAD      		ldd r19,Y+63
 763 03c6 E697      		sbiw r28,116-62
 764 03c8 3683      		std Z+6,r19
 765 03ca 2583      		std Z+5,r18
 766               	.LVL63:
 767 03cc E696      		adiw r28,116-62
 768 03ce FFAF      		std Y+63,r31
 769 03d0 EEAF      		std Y+62,r30
 770 03d2 E697      		sbiw r28,116-62
 771               	.LVL64:
 772               	.L42:
 773               	.LBE13:
 192:../../LUFA-111009/LUFA/Drivers/USB/Class/Common/HIDParser.c **** 				CurrCollectionPath->Type       = ReportItemData;
 774               		.loc 1 192 0
 775 03d4 E696      		adiw r28,116-62
 776 03d6 AEAD      		ldd r26,Y+62
 777 03d8 BFAD      		ldd r27,Y+63
 778 03da E697      		sbiw r28,116-62
 779 03dc CC92      		st X,r12
 193:../../LUFA-111009/LUFA/Drivers/USB/Class/Common/HIDParser.c **** 				CurrCollectionPath->Usage.Page = CurrStateTable->Attributes.Usage.Page;
 780               		.loc 1 193 0
 781 03de F801      		movw r30,r16
 782 03e0 8181      		ldd r24,Z+1
 783 03e2 9281      		ldd r25,Z+2
 784 03e4 1296      		adiw r26,1+1
 785 03e6 9C93      		st X,r25
 786 03e8 8E93      		st -X,r24
 787 03ea 1197      		sbiw r26,1
 195:../../LUFA-111009/LUFA/Drivers/USB/Class/Common/HIDParser.c **** 				if (UsageListSize)
 788               		.loc 1 195 0
 789 03ec E496      		adiw r28,115-63
 790 03ee 2FAD      		ldd r18,Y+63
 791 03f0 E497      		sbiw r28,115-63
 792 03f2 2223      		tst r18
 793 03f4 01F0      		breq .L45
 197:../../LUFA-111009/LUFA/Drivers/USB/Class/Common/HIDParser.c **** 					CurrCollectionPath->Usage.Usage = UsageList[0];
 794               		.loc 1 197 0
 795 03f6 A596      		adiw r28,99-62
 796 03f8 8EAD      		ldd r24,Y+62
 797 03fa 9FAD      		ldd r25,Y+63
 798 03fc A597      		sbiw r28,99-62
 799 03fe 1496      		adiw r26,3+1
 800 0400 9C93      		st X,r25
 801 0402 8E93      		st -X,r24
 802 0404 1397      		sbiw r26,3
 803               	.LVL65:
 804 0406 FE01      		movw r30,r28
 805 0408 ED59      		subi r30,-99
 806 040a FF4F      		sbci r31,-1
 807               	.LBB14:
 199:../../LUFA-111009/LUFA/Drivers/USB/Class/Common/HIDParser.c **** 					for (uint8_t i = 0; i < UsageListSize; i++)
 808               		.loc 1 199 0
 809 040c 20E0      		ldi r18,0
 810               	.LVL66:
 811               	.L46:
 200:../../LUFA-111009/LUFA/Drivers/USB/Class/Common/HIDParser.c **** 					  UsageList[i] = UsageList[i + 1];
 812               		.loc 1 200 0 discriminator 2
 813 040e 8281      		ldd r24,Z+2
 814 0410 9381      		ldd r25,Z+3
 815 0412 8193      		st Z+,r24
 816 0414 9193      		st Z+,r25
 199:../../LUFA-111009/LUFA/Drivers/USB/Class/Common/HIDParser.c **** 					for (uint8_t i = 0; i < UsageListSize; i++)
 817               		.loc 1 199 0 discriminator 2
 818 0416 2F5F      		subi r18,lo8(-(1))
 819               	.LVL67:
 820 0418 E496      		adiw r28,115-63
 821 041a 3FAD      		ldd r19,Y+63
 822 041c E497      		sbiw r28,115-63
 823 041e 2313      		cpse r18,r19
 824 0420 00C0      		rjmp .L46
 825               	.LBE14:
 202:../../LUFA-111009/LUFA/Drivers/USB/Class/Common/HIDParser.c **** 					UsageListSize--;
 826               		.loc 1 202 0
 827 0422 3150      		subi r19,lo8(-(-1))
 828 0424 E496      		adiw r28,115-63
 829 0426 3FAF      		std Y+63,r19
 830 0428 E497      		sbiw r28,115-63
 831               	.LVL68:
 832 042a 00C0      		rjmp .L8
 833               	.LVL69:
 834               	.L45:
 204:../../LUFA-111009/LUFA/Drivers/USB/Class/Common/HIDParser.c **** 				else if (UsageMinMax.Minimum <= UsageMinMax.Maximum)
 835               		.loc 1 204 0
 836 042c 4814      		cp r4,r8
 837 042e 5904      		cpc r5,r9
 838 0430 6A04      		cpc r6,r10
 839 0432 7B04      		cpc r7,r11
 840 0434 00F4      		brsh .+2
 841 0436 00C0      		rjmp .L8
 842               	.LVL70:
 206:../../LUFA-111009/LUFA/Drivers/USB/Class/Common/HIDParser.c **** 					CurrCollectionPath->Usage.Usage = UsageMinMax.Minimum++;
 843               		.loc 1 206 0
 844 0438 E696      		adiw r28,116-62
 845 043a AEAD      		ldd r26,Y+62
 846 043c BFAD      		ldd r27,Y+63
 847 043e E697      		sbiw r28,116-62
 848 0440 1496      		adiw r26,3+1
 849 0442 9C92      		st X,r9
 850 0444 8E92      		st -X,r8
 851 0446 1397      		sbiw r26,3
 852 0448 BFEF      		ldi r27,-1
 853 044a 8B1A      		sub r8,r27
 854 044c 9B0A      		sbc r9,r27
 855 044e AB0A      		sbc r10,r27
 856 0450 BB0A      		sbc r11,r27
 857               	.LVL71:
 858 0452 00C0      		rjmp .L8
 859               	.LVL72:
 860               	.L33:
 211:../../LUFA-111009/LUFA/Drivers/USB/Class/Common/HIDParser.c **** 				if (CurrCollectionPath == NULL)
 861               		.loc 1 211 0
 862 0454 E696      		adiw r28,116-62
 863 0456 2EAD      		ldd r18,Y+62
 864 0458 3FAD      		ldd r19,Y+63
 865 045a E697      		sbiw r28,116-62
 866 045c 2115      		cp r18,__zero_reg__
 867 045e 3105      		cpc r19,__zero_reg__
 868 0460 01F4      		brne .+2
 869 0462 00C0      		rjmp .L68
 214:../../LUFA-111009/LUFA/Drivers/USB/Class/Common/HIDParser.c **** 				CurrCollectionPath = CurrCollectionPath->Parent;
 870               		.loc 1 214 0
 871 0464 D901      		movw r26,r18
 872               	.LVL73:
 873 0466 1596      		adiw r26,5
 874 0468 0D90      		ld __tmp_reg__,X+
 875 046a BC91      		ld r27,X
 876 046c A02D      		mov r26,__tmp_reg__
 877 046e E696      		adiw r28,116-62
 878 0470 BFAF      		std Y+63,r27
 879 0472 AEAF      		std Y+62,r26
 880 0474 E697      		sbiw r28,116-62
 881               	.LVL74:
 215:../../LUFA-111009/LUFA/Drivers/USB/Class/Common/HIDParser.c **** 				break;
 882               		.loc 1 215 0
 883 0476 00C0      		rjmp .L8
 884               	.LVL75:
 885               	.L56:
 886               	.LBB15:
 887               	.LBB7:
 263:../../LUFA-111009/LUFA/Drivers/USB/Class/Common/HIDParser.c **** 					memcpy(&ParserData->ReportItems[ParserData->TotalReportItems],
 888               		.loc 1 263 0
 889 0478 DA01      		movw r26,r20
 890 047a FAE2      		ldi r31,lo8(42)
 891 047c F89F      		mul r31,r24
 892 047e A00D      		add r26,r0
 893 0480 B11D      		adc r27,r1
 894 0482 1124      		clr __zero_reg__
 895 0484 1196      		adiw r26,1
 896 0486 FE01      		movw r30,r28
 897 0488 F996      		adiw r30,57
 898 048a 8AE2      		ldi r24,lo8(42)
 899               		0:
 900 048c 0190      		ld r0,Z+
 901 048e 0D92      		st X+,r0
 902 0490 8A95      		dec r24
 903 0492 01F4      		brne 0b
 904               		.loc 1 266 0
 905 0494 C158      		subi r28,lo8(-127)
 906 0496 DF4F      		sbci r29,hi8(-127)
 907 0498 8881      		ld r24,Y
 908 049a 9981      		ldd r25,Y+1
 909 049c AA81      		ldd r26,Y+2
 910 049e BB81      		ldd r27,Y+3
 911 04a0 CF57      		subi r28,lo8(127)
 912 04a2 D040      		sbci r29,hi8(127)
 913 04a4 892B      		or r24,r25
 914 04a6 8A2B      		or r24,r26
 915 04a8 8B2B      		or r24,r27
 916 04aa 01F4      		brne .+2
 917 04ac 00C0      		rjmp .L95
 918               	.LVL76:
 919               	.L58:
 920               	.LBE7:
 219:../../LUFA-111009/LUFA/Drivers/USB/Class/Common/HIDParser.c **** 				for (uint8_t ReportItemNum = 0; ReportItemNum < CurrStateTable->ReportCount; ReportItemNum++)
 921               		.loc 1 219 0
 922 04ae 3F5F      		subi r19,lo8(-(1))
 923               	.LVL77:
 924               	.L34:
 219:../../LUFA-111009/LUFA/Drivers/USB/Class/Common/HIDParser.c **** 				for (uint8_t ReportItemNum = 0; ReportItemNum < CurrStateTable->ReportCount; ReportItemNum++)
 925               		.loc 1 219 0 is_stmt 0 discriminator 1
 926 04b0 F801      		movw r30,r16
 927 04b2 828D      		ldd r24,Z+26
 928 04b4 3817      		cp r19,r24
 929 04b6 00F0      		brlo .+2
 930 04b8 00C0      		rjmp .L8
 931               	.LBB8:
 223:../../LUFA-111009/LUFA/Drivers/USB/Class/Common/HIDParser.c **** 					memcpy(&NewReportItem.Attributes,
 932               		.loc 1 223 0 is_stmt 1
 933 04ba F801      		movw r30,r16
 934 04bc DE01      		movw r26,r28
 935 04be AF5B      		subi r26,-65
 936 04c0 BF4F      		sbci r27,-1
 937 04c2 8AE1      		ldi r24,lo8(26)
 938               		0:
 939 04c4 0190      		ld r0,Z+
 940 04c6 0D92      		st X+,r0
 941 04c8 8A95      		dec r24
 942 04ca 01F4      		brne 0b
 227:../../LUFA-111009/LUFA/Drivers/USB/Class/Common/HIDParser.c **** 					NewReportItem.ItemFlags      = ReportItemData;
 943               		.loc 1 227 0
 944 04cc DDAE      		std Y+61,r13
 945 04ce CCAE      		std Y+60,r12
 228:../../LUFA-111009/LUFA/Drivers/USB/Class/Common/HIDParser.c **** 					NewReportItem.CollectionPath = CurrCollectionPath;
 946               		.loc 1 228 0
 947 04d0 E696      		adiw r28,116-62
 948 04d2 EEAD      		ldd r30,Y+62
 949 04d4 FFAD      		ldd r31,Y+63
 950 04d6 E697      		sbiw r28,116-62
 951 04d8 2196      		adiw r28,63-62
 952 04da FFAF      		std Y+63,r31
 953 04dc EEAF      		std Y+62,r30
 954 04de 2197      		sbiw r28,63-62
 229:../../LUFA-111009/LUFA/Drivers/USB/Class/Common/HIDParser.c **** 					NewReportItem.ReportID       = CurrStateTable->ReportID;
 955               		.loc 1 229 0
 956 04e0 D801      		movw r26,r16
 957 04e2 5B96      		adiw r26,27
 958 04e4 8C91      		ld r24,X
 959 04e6 8EAF      		std Y+62,r24
 231:../../LUFA-111009/LUFA/Drivers/USB/Class/Common/HIDParser.c **** 					if (UsageListSize)
 960               		.loc 1 231 0
 961 04e8 E496      		adiw r28,115-63
 962 04ea BFAD      		ldd r27,Y+63
 963 04ec E497      		sbiw r28,115-63
 964 04ee BB23      		tst r27
 965 04f0 01F0      		breq .L48
 233:../../LUFA-111009/LUFA/Drivers/USB/Class/Common/HIDParser.c **** 						NewReportItem.Attributes.Usage.Usage = UsageList[0];
 966               		.loc 1 233 0
 967 04f2 A596      		adiw r28,99-62
 968 04f4 8EAD      		ldd r24,Y+62
 969 04f6 9FAD      		ldd r25,Y+63
 970 04f8 A597      		sbiw r28,99-62
 971 04fa 2696      		adiw r28,68-62
 972 04fc 9FAF      		std Y+63,r25
 973 04fe 8EAF      		std Y+62,r24
 974 0500 2697      		sbiw r28,68-62
 975               	.LVL78:
 976 0502 FE01      		movw r30,r28
 977 0504 ED59      		subi r30,-99
 978 0506 FF4F      		sbci r31,-1
 979               	.LBB5:
 235:../../LUFA-111009/LUFA/Drivers/USB/Class/Common/HIDParser.c **** 						for (uint8_t i = 0; i < UsageListSize; i++)
 980               		.loc 1 235 0
 981 0508 A0E0      		ldi r26,0
 982               	.LVL79:
 983               	.L49:
 236:../../LUFA-111009/LUFA/Drivers/USB/Class/Common/HIDParser.c **** 						  UsageList[i] = UsageList[i + 1];
 984               		.loc 1 236 0 discriminator 2
 985 050a 8281      		ldd r24,Z+2
 986 050c 9381      		ldd r25,Z+3
 987 050e 8193      		st Z+,r24
 988 0510 9193      		st Z+,r25
 235:../../LUFA-111009/LUFA/Drivers/USB/Class/Common/HIDParser.c **** 						for (uint8_t i = 0; i < UsageListSize; i++)
 989               		.loc 1 235 0 discriminator 2
 990 0512 AF5F      		subi r26,lo8(-(1))
 991               	.LVL80:
 992 0514 E496      		adiw r28,115-63
 993 0516 8FAD      		ldd r24,Y+63
 994 0518 E497      		sbiw r28,115-63
 995 051a A813      		cpse r26,r24
 996 051c 00C0      		rjmp .L49
 997               	.LBE5:
 238:../../LUFA-111009/LUFA/Drivers/USB/Class/Common/HIDParser.c **** 						UsageListSize--;
 998               		.loc 1 238 0
 999 051e 8150      		subi r24,lo8(-(-1))
 1000 0520 E496      		adiw r28,115-63
 1001 0522 8FAF      		std Y+63,r24
 1002 0524 E497      		sbiw r28,115-63
 1003               	.LVL81:
 1004 0526 00C0      		rjmp .L51
 1005               	.LVL82:
 1006               	.L48:
 240:../../LUFA-111009/LUFA/Drivers/USB/Class/Common/HIDParser.c **** 					else if (UsageMinMax.Minimum <= UsageMinMax.Maximum)
 1007               		.loc 1 240 0
 1008 0528 4814      		cp r4,r8
 1009 052a 5904      		cpc r5,r9
 1010 052c 6A04      		cpc r6,r10
 1011 052e 7B04      		cpc r7,r11
 1012 0530 00F0      		brlo .L51
 1013               	.LVL83:
 242:../../LUFA-111009/LUFA/Drivers/USB/Class/Common/HIDParser.c **** 						NewReportItem.Attributes.Usage.Usage = UsageMinMax.Minimum++;
 1014               		.loc 1 242 0
 1015 0532 2696      		adiw r28,68-62
 1016 0534 9FAE      		std Y+63,r9
 1017 0536 8EAE      		std Y+62,r8
 1018 0538 2697      		sbiw r28,68-62
 1019 053a 9FEF      		ldi r25,-1
 1020 053c 891A      		sub r8,r25
 1021 053e 990A      		sbc r9,r25
 1022 0540 A90A      		sbc r10,r25
 1023 0542 B90A      		sbc r11,r25
 1024               	.LVL84:
 1025               	.L51:
 247:../../LUFA-111009/LUFA/Drivers/USB/Class/Common/HIDParser.c **** 					if (ItemTypeTag == HID_RI_INPUT(0))
 1026               		.loc 1 247 0
 1027 0544 2038      		cpi r18,lo8(-128)
 1028 0546 01F4      		brne .L52
 248:../../LUFA-111009/LUFA/Drivers/USB/Class/Common/HIDParser.c **** 					  NewReportItem.ItemType = HID_REPORT_ITEM_In;
 1029               		.loc 1 248 0
 1030 0548 1BAE      		std Y+59,__zero_reg__
 1031 054a 00C0      		rjmp .L53
 1032               	.L52:
 249:../../LUFA-111009/LUFA/Drivers/USB/Class/Common/HIDParser.c **** 					else if (ItemTypeTag == HID_RI_OUTPUT(0))
 1033               		.loc 1 249 0
 1034 054c 2039      		cpi r18,lo8(-112)
 1035 054e 01F4      		brne .L54
 250:../../LUFA-111009/LUFA/Drivers/USB/Class/Common/HIDParser.c **** 					  NewReportItem.ItemType = HID_REPORT_ITEM_Out;
 1036               		.loc 1 250 0
 1037 0550 A1E0      		ldi r26,lo8(1)
 1038 0552 ABAF      		std Y+59,r26
 1039 0554 00C0      		rjmp .L53
 1040               	.L54:
 252:../../LUFA-111009/LUFA/Drivers/USB/Class/Common/HIDParser.c **** 					  NewReportItem.ItemType = HID_REPORT_ITEM_Feature;
 1041               		.loc 1 252 0
 1042 0556 B2E0      		ldi r27,lo8(2)
 1043 0558 BBAF      		std Y+59,r27
 1044               	.L53:
 254:../../LUFA-111009/LUFA/Drivers/USB/Class/Common/HIDParser.c **** 					NewReportItem.BitOffset = CurrReportIDInfo->ReportSizeBits[NewReportItem.ItemType];
 1045               		.loc 1 254 0
 1046 055a 8BAD      		ldd r24,Y+59
 1047 055c E896      		adiw r28,118-62
 1048 055e EEAD      		ldd r30,Y+62
 1049 0560 FFAD      		ldd r31,Y+63
 1050 0562 E897      		sbiw r28,118-62
 1051 0564 E80F      		add r30,r24
 1052 0566 F11D      		adc r31,__zero_reg__
 1053 0568 E80F      		add r30,r24
 1054 056a F11D      		adc r31,__zero_reg__
 1055 056c 8181      		ldd r24,Z+1
 1056 056e 9281      		ldd r25,Z+2
 1057 0570 9AAF      		std Y+58,r25
 1058 0572 89AF      		std Y+57,r24
 256:../../LUFA-111009/LUFA/Drivers/USB/Class/Common/HIDParser.c **** 					CurrReportIDInfo->ReportSizeBits[NewReportItem.ItemType] += CurrStateTable->Attributes.BitSize
 1059               		.loc 1 256 0
 1060 0574 D801      		movw r26,r16
 1061 0576 BC91      		ld r27,X
 1062 0578 8181      		ldd r24,Z+1
 1063 057a 9281      		ldd r25,Z+2
 1064 057c 8B0F      		add r24,r27
 1065 057e 911D      		adc r25,__zero_reg__
 1066 0580 9283      		std Z+2,r25
 1067 0582 8183      		std Z+1,r24
 258:../../LUFA-111009/LUFA/Drivers/USB/Class/Common/HIDParser.c **** 					ParserData->LargestReportSizeBits = MAX(ParserData->LargestReportSizeBits, CurrReportIDInfo->R
 1068               		.loc 1 258 0
 1069 0584 8BAD      		ldd r24,Y+59
 1070 0586 E896      		adiw r28,118-62
 1071 0588 EEAD      		ldd r30,Y+62
 1072 058a FFAD      		ldd r31,Y+63
 1073 058c E897      		sbiw r28,118-62
 1074 058e E80F      		add r30,r24
 1075 0590 F11D      		adc r31,__zero_reg__
 1076 0592 E80F      		add r30,r24
 1077 0594 F11D      		adc r31,__zero_reg__
 1078 0596 ED96      		adiw r28,123-62
 1079 0598 AEAD      		ldd r26,Y+62
 1080 059a BFAD      		ldd r27,Y+63
 1081 059c ED97      		sbiw r28,123-62
 1082 059e 8D91      		ld r24,X+
 1083 05a0 9C91      		ld r25,X
 1084 05a2 0180      		ldd __tmp_reg__,Z+1
 1085 05a4 F281      		ldd r31,Z+2
 1086 05a6 E02D      		mov r30,__tmp_reg__
 1087 05a8 E817      		cp r30,r24
 1088 05aa F907      		cpc r31,r25
 1089 05ac 00F4      		brsh .L55
 1090 05ae FC01      		movw r30,r24
 1091               	.L55:
 1092 05b0 ED96      		adiw r28,123-62
 1093 05b2 AEAD      		ldd r26,Y+62
 1094 05b4 BFAD      		ldd r27,Y+63
 1095 05b6 ED97      		sbiw r28,123-62
 1096 05b8 ED93      		st X+,r30
 1097 05ba FC93      		st X,r31
 260:../../LUFA-111009/LUFA/Drivers/USB/Class/Common/HIDParser.c **** 					if (ParserData->TotalReportItems == HID_MAX_REPORTITEMS)
 1098               		.loc 1 260 0
 1099 05bc FA01      		movw r30,r20
 1100 05be 8081      		ld r24,Z
 1101 05c0 8431      		cpi r24,lo8(20)
 1102 05c2 01F0      		breq .+2
 1103 05c4 00C0      		rjmp .L56
 261:../../LUFA-111009/LUFA/Drivers/USB/Class/Common/HIDParser.c **** 					  return HID_PARSE_InsufficientReportItems;
 1104               		.loc 1 261 0
 1105 05c6 83E0      		ldi r24,lo8(3)
 1106 05c8 00C0      		rjmp .L88
 1107               	.L95:
 1108               		.loc 1 266 0 discriminator 1
 1109 05ca CE01      		movw r24,r28
 1110 05cc C996      		adiw r24,57
 1111 05ce C857      		subi r28,lo8(-136)
 1112 05d0 DF4F      		sbci r29,hi8(-136)
 1113 05d2 2883      		st Y,r18
 1114 05d4 C858      		subi r28,lo8(136)
 1115 05d6 D040      		sbci r29,hi8(136)
 1116 05d8 C957      		subi r28,lo8(-135)
 1117 05da DF4F      		sbci r29,hi8(-135)
 1118 05dc 3883      		st Y,r19
 1119 05de C758      		subi r28,lo8(135)
 1120 05e0 D040      		sbci r29,hi8(135)
 1121 05e2 C557      		subi r28,lo8(-139)
 1122 05e4 DF4F      		sbci r29,hi8(-139)
 1123 05e6 4883      		st Y,r20
 1124 05e8 CB58      		subi r28,lo8(139)
 1125 05ea D040      		sbci r29,hi8(139)
 1126 05ec C457      		subi r28,lo8(-140)
 1127 05ee DF4F      		sbci r29,hi8(-140)
 1128 05f0 5883      		st Y,r21
 1129 05f2 CC58      		subi r28,lo8(140)
 1130 05f4 D040      		sbci r29,hi8(140)
 1131 05f6 C757      		subi r28,lo8(-137)
 1132 05f8 DF4F      		sbci r29,hi8(-137)
 1133 05fa 6883      		st Y,r22
 1134 05fc C958      		subi r28,lo8(137)
 1135 05fe D040      		sbci r29,hi8(137)
 1136 0600 C657      		subi r28,lo8(-138)
 1137 0602 DF4F      		sbci r29,hi8(-138)
 1138 0604 7883      		st Y,r23
 1139 0606 CA58      		subi r28,lo8(138)
 1140 0608 D040      		sbci r29,hi8(138)
 1141 060a 0E94 0000 		call CALLBACK_HIDParser_FilterHIDReportItem
 1142               	.LVL85:
 1143 060e C857      		subi r28,lo8(-136)
 1144 0610 DF4F      		sbci r29,hi8(-136)
 1145 0612 2881      		ld r18,Y
 1146 0614 C858      		subi r28,lo8(136)
 1147 0616 D040      		sbci r29,hi8(136)
 1148 0618 C957      		subi r28,lo8(-135)
 1149 061a DF4F      		sbci r29,hi8(-135)
 1150 061c 3881      		ld r19,Y
 1151 061e C758      		subi r28,lo8(135)
 1152 0620 D040      		sbci r29,hi8(135)
 1153 0622 C557      		subi r28,lo8(-139)
 1154 0624 DF4F      		sbci r29,hi8(-139)
 1155 0626 4881      		ld r20,Y
 1156 0628 CB58      		subi r28,lo8(139)
 1157 062a D040      		sbci r29,hi8(139)
 1158 062c C457      		subi r28,lo8(-140)
 1159 062e DF4F      		sbci r29,hi8(-140)
 1160 0630 5881      		ld r21,Y
 1161 0632 CC58      		subi r28,lo8(140)
 1162 0634 D040      		sbci r29,hi8(140)
 1163 0636 C757      		subi r28,lo8(-137)
 1164 0638 DF4F      		sbci r29,hi8(-137)
 1165 063a 6881      		ld r22,Y
 1166 063c C958      		subi r28,lo8(137)
 1167 063e D040      		sbci r29,hi8(137)
 1168 0640 C657      		subi r28,lo8(-138)
 1169 0642 DF4F      		sbci r29,hi8(-138)
 1170 0644 7881      		ld r23,Y
 1171 0646 CA58      		subi r28,lo8(138)
 1172 0648 D040      		sbci r29,hi8(138)
 1173 064a 8823      		tst r24
 1174 064c 01F4      		brne .+2
 1175 064e 00C0      		rjmp .L58
 267:../../LUFA-111009/LUFA/Drivers/USB/Class/Common/HIDParser.c **** 					  ParserData->TotalReportItems++;
 1176               		.loc 1 267 0
 1177 0650 DA01      		movw r26,r20
 1178 0652 8C91      		ld r24,X
 1179 0654 8F5F      		subi r24,lo8(-(1))
 1180 0656 8C93      		st X,r24
 1181 0658 00C0      		rjmp .L58
 1182               	.LVL86:
 1183               	.L8:
 1184               	.LBE8:
 1185               	.LBE15:
 268:../../LUFA-111009/LUFA/Drivers/USB/Class/Common/HIDParser.c **** 				}
 269:../../LUFA-111009/LUFA/Drivers/USB/Class/Common/HIDParser.c **** 
 270:../../LUFA-111009/LUFA/Drivers/USB/Class/Common/HIDParser.c **** 				break;
 271:../../LUFA-111009/LUFA/Drivers/USB/Class/Common/HIDParser.c **** 		}
 272:../../LUFA-111009/LUFA/Drivers/USB/Class/Common/HIDParser.c **** 
 273:../../LUFA-111009/LUFA/Drivers/USB/Class/Common/HIDParser.c **** 		if ((HIDReportItem & HID_RI_TYPE_MASK) == HID_RI_TYPE_MAIN)
 1186               		.loc 1 273 0
 1187 065a E996      		adiw r28,120-63
 1188 065c 8FAD      		ldd r24,Y+63
 1189 065e E997      		sbiw r28,120-63
 1190 0660 8C70      		andi r24,lo8(12)
 1191 0662 01F0      		breq .+2
 1192 0664 00C0      		rjmp .L2
 274:../../LUFA-111009/LUFA/Drivers/USB/Class/Common/HIDParser.c **** 		{
 275:../../LUFA-111009/LUFA/Drivers/USB/Class/Common/HIDParser.c **** 			UsageMinMax.Minimum = 0;
 276:../../LUFA-111009/LUFA/Drivers/USB/Class/Common/HIDParser.c **** 			UsageMinMax.Maximum = 0;
 1193               		.loc 1 276 0
 1194 0666 412C      		mov r4,__zero_reg__
 1195 0668 512C      		mov r5,__zero_reg__
 1196 066a 3201      		movw r6,r4
 1197               	.LVL87:
 275:../../LUFA-111009/LUFA/Drivers/USB/Class/Common/HIDParser.c **** 			UsageMinMax.Minimum = 0;
 1198               		.loc 1 275 0
 1199 066c 812C      		mov r8,__zero_reg__
 1200 066e 912C      		mov r9,__zero_reg__
 1201 0670 5401      		movw r10,r8
 1202               	.LVL88:
 277:../../LUFA-111009/LUFA/Drivers/USB/Class/Common/HIDParser.c **** 			UsageListSize       = 0;
 1203               		.loc 1 277 0
 1204 0672 E496      		adiw r28,115-63
 1205 0674 1FAE      		std Y+63,__zero_reg__
 1206 0676 E497      		sbiw r28,115-63
 1207               	.LVL89:
 1208 0678 00C0      		rjmp .L2
 1209               	.LVL90:
 1210               	.L91:
 1211               	.LBE17:
 278:../../LUFA-111009/LUFA/Drivers/USB/Class/Common/HIDParser.c **** 		}
 279:../../LUFA-111009/LUFA/Drivers/USB/Class/Common/HIDParser.c **** 	}
 280:../../LUFA-111009/LUFA/Drivers/USB/Class/Common/HIDParser.c **** 
 281:../../LUFA-111009/LUFA/Drivers/USB/Class/Common/HIDParser.c **** 	if (!(ParserData->TotalReportItems))
 1212               		.loc 1 281 0
 1213 067a DA01      		movw r26,r20
 1214 067c 8C91      		ld r24,X
 1215 067e 8111      		cpse r24,__zero_reg__
 1216 0680 00C0      		rjmp .L70
 282:../../LUFA-111009/LUFA/Drivers/USB/Class/Common/HIDParser.c **** 	  return HID_PARSE_NoUnfilteredReportItems;
 1217               		.loc 1 282 0
 1218 0682 88E0      		ldi r24,lo8(8)
 1219 0684 00C0      		rjmp .L88
 1220               	.LVL91:
 1221               	.L64:
 1222               	.LBB18:
  84:../../LUFA-111009/LUFA/Drivers/USB/Class/Common/HIDParser.c **** 				  return HID_PARSE_HIDStackOverflow;
 1223               		.loc 1 84 0
 1224 0686 81E0      		ldi r24,lo8(1)
 1225 0688 00C0      		rjmp .L88
 1226               	.L65:
  94:../../LUFA-111009/LUFA/Drivers/USB/Class/Common/HIDParser.c **** 				  return HID_PARSE_HIDStackUnderflow;
 1227               		.loc 1 94 0
 1228 068a 82E0      		ldi r24,lo8(2)
 1229 068c 00C0      		rjmp .L88
 1230               	.L66:
 160:../../LUFA-111009/LUFA/Drivers/USB/Class/Common/HIDParser.c **** 				  return HID_PARSE_UsageListOverflow;
 1231               		.loc 1 160 0
 1232 068e 86E0      		ldi r24,lo8(6)
 1233 0690 00C0      		rjmp .L88
 1234               	.LVL92:
 1235               	.L67:
 1236               	.LBB16:
 184:../../LUFA-111009/LUFA/Drivers/USB/Class/Common/HIDParser.c **** 						  return HID_PARSE_InsufficientCollectionPaths;
 1237               		.loc 1 184 0
 1238 0692 85E0      		ldi r24,lo8(5)
 1239 0694 00C0      		rjmp .L88
 1240               	.LVL93:
 1241               	.L68:
 1242               	.LBE16:
 212:../../LUFA-111009/LUFA/Drivers/USB/Class/Common/HIDParser.c **** 				  return HID_PARSE_UnexpectedEndCollection;
 1243               		.loc 1 212 0
 1244 0696 84E0      		ldi r24,lo8(4)
 1245 0698 00C0      		rjmp .L88
 1246               	.LVL94:
 1247               	.L70:
 1248               	.LBE18:
 283:../../LUFA-111009/LUFA/Drivers/USB/Class/Common/HIDParser.c **** 
 284:../../LUFA-111009/LUFA/Drivers/USB/Class/Common/HIDParser.c **** 	return HID_PARSE_Successful;
 1249               		.loc 1 284 0
 1250 069a 80E0      		ldi r24,0
 1251 069c 00C0      		rjmp .L88
 1252               	.LVL95:
 1253               	.L93:
 1254               	.LBB19:
 147:../../LUFA-111009/LUFA/Drivers/USB/Class/Common/HIDParser.c **** 						  return HID_PARSE_InsufficientReportIDItems;
 1255               		.loc 1 147 0
 1256 069e 87E0      		ldi r24,lo8(7)
 1257               	.LVL96:
 1258               	.L88:
 1259               	/* epilogue start */
 1260               	.LBE19:
 285:../../LUFA-111009/LUFA/Drivers/USB/Class/Common/HIDParser.c **** }
 1261               		.loc 1 285 0
 1262 06a0 C357      		subi r28,115
 1263 06a2 DF4F      		sbci r29,-1
 1264 06a4 0FB6      		in __tmp_reg__,__SREG__
 1265 06a6 F894      		cli
 1266 06a8 DEBF      		out __SP_H__,r29
 1267 06aa 0FBE      		out __SREG__,__tmp_reg__
 1268 06ac CDBF      		out __SP_L__,r28
 1269 06ae DF91      		pop r29
 1270 06b0 CF91      		pop r28
 1271 06b2 1F91      		pop r17
 1272 06b4 0F91      		pop r16
 1273               	.LVL97:
 1274 06b6 FF90      		pop r15
 1275 06b8 EF90      		pop r14
 1276 06ba DF90      		pop r13
 1277 06bc CF90      		pop r12
 1278 06be BF90      		pop r11
 1279 06c0 AF90      		pop r10
 1280 06c2 9F90      		pop r9
 1281 06c4 8F90      		pop r8
 1282               	.LVL98:
 1283 06c6 7F90      		pop r7
 1284 06c8 6F90      		pop r6
 1285 06ca 5F90      		pop r5
 1286 06cc 4F90      		pop r4
 1287               	.LVL99:
 1288 06ce 3F90      		pop r3
 1289 06d0 2F90      		pop r2
 1290               	.LVL100:
 1291 06d2 0895      		ret
 1292               		.cfi_endproc
 1293               	.LFE16:
 1295               		.section	.text.USB_GetHIDReportItemInfo,"ax",@progbits
 1296               	.global	USB_GetHIDReportItemInfo
 1298               	USB_GetHIDReportItemInfo:
 1299               	.LFB17:
 286:../../LUFA-111009/LUFA/Drivers/USB/Class/Common/HIDParser.c **** 
 287:../../LUFA-111009/LUFA/Drivers/USB/Class/Common/HIDParser.c **** bool USB_GetHIDReportItemInfo(const uint8_t* ReportData,
 288:../../LUFA-111009/LUFA/Drivers/USB/Class/Common/HIDParser.c ****                               HID_ReportItem_t* const ReportItem)
 289:../../LUFA-111009/LUFA/Drivers/USB/Class/Common/HIDParser.c **** {
 1300               		.loc 1 289 0
 1301               		.cfi_startproc
 1302               	.LVL101:
 1303 0000 EF92      		push r14
 1304               	.LCFI20:
 1305               		.cfi_def_cfa_offset 3
 1306               		.cfi_offset 14, -2
 1307 0002 FF92      		push r15
 1308               	.LCFI21:
 1309               		.cfi_def_cfa_offset 4
 1310               		.cfi_offset 15, -3
 1311 0004 0F93      		push r16
 1312               	.LCFI22:
 1313               		.cfi_def_cfa_offset 5
 1314               		.cfi_offset 16, -4
 1315 0006 1F93      		push r17
 1316               	.LCFI23:
 1317               		.cfi_def_cfa_offset 6
 1318               		.cfi_offset 17, -5
 1319 0008 CF93      		push r28
 1320               	.LCFI24:
 1321               		.cfi_def_cfa_offset 7
 1322               		.cfi_offset 28, -6
 1323 000a DF93      		push r29
 1324               	.LCFI25:
 1325               		.cfi_def_cfa_offset 8
 1326               		.cfi_offset 29, -7
 1327               	/* prologue: function */
 1328               	/* frame size = 0 */
 1329               	/* stack size = 6 */
 1330               	.L__stack_usage = 6
 1331 000c FB01      		movw r30,r22
 290:../../LUFA-111009/LUFA/Drivers/USB/Class/Common/HIDParser.c **** 	if (ReportItem == NULL)
 1332               		.loc 1 290 0
 1333 000e 3097      		sbiw r30,0
 1334 0010 01F4      		brne .+2
 1335 0012 00C0      		rjmp .L103
 291:../../LUFA-111009/LUFA/Drivers/USB/Class/Common/HIDParser.c **** 	  return false;
 292:../../LUFA-111009/LUFA/Drivers/USB/Class/Common/HIDParser.c **** 
 293:../../LUFA-111009/LUFA/Drivers/USB/Class/Common/HIDParser.c **** 	uint16_t DataBitsRem  = ReportItem->Attributes.BitSize;
 1336               		.loc 1 293 0
 1337 0014 3085      		ldd r19,Z+8
 1338               	.LVL102:
 294:../../LUFA-111009/LUFA/Drivers/USB/Class/Common/HIDParser.c **** 	uint16_t CurrentBit   = ReportItem->BitOffset;
 1339               		.loc 1 294 0
 1340 0016 D081      		ld r29,Z
 1341 0018 C181      		ldd r28,Z+1
 1342               	.LVL103:
 295:../../LUFA-111009/LUFA/Drivers/USB/Class/Common/HIDParser.c **** 	uint32_t BitMask      = (1 << 0);
 296:../../LUFA-111009/LUFA/Drivers/USB/Class/Common/HIDParser.c **** 
 297:../../LUFA-111009/LUFA/Drivers/USB/Class/Common/HIDParser.c **** 	if (ReportItem->ReportID)
 1343               		.loc 1 297 0
 1344 001a 2581      		ldd r18,Z+5
 1345 001c 2223      		tst r18
 1346 001e 01F0      		breq .L98
 298:../../LUFA-111009/LUFA/Drivers/USB/Class/Common/HIDParser.c **** 	{
 299:../../LUFA-111009/LUFA/Drivers/USB/Class/Common/HIDParser.c **** 		if (ReportItem->ReportID != ReportData[0])
 1347               		.loc 1 299 0
 1348 0020 DC01      		movw r26,r24
 1349 0022 4C91      		ld r20,X
 1350 0024 2413      		cpse r18,r20
 1351 0026 00C0      		rjmp .L103
 300:../../LUFA-111009/LUFA/Drivers/USB/Class/Common/HIDParser.c **** 		  return false;
 301:../../LUFA-111009/LUFA/Drivers/USB/Class/Common/HIDParser.c **** 
 302:../../LUFA-111009/LUFA/Drivers/USB/Class/Common/HIDParser.c **** 		ReportData++;
 1352               		.loc 1 302 0
 1353 0028 0196      		adiw r24,1
 1354               	.LVL104:
 1355               	.L98:
 303:../../LUFA-111009/LUFA/Drivers/USB/Class/Common/HIDParser.c **** 	}
 304:../../LUFA-111009/LUFA/Drivers/USB/Class/Common/HIDParser.c **** 
 305:../../LUFA-111009/LUFA/Drivers/USB/Class/Common/HIDParser.c **** 	ReportItem->PreviousValue = ReportItem->Value;
 1356               		.loc 1 305 0
 1357 002a 42A1      		ldd r20,Z+34
 1358 002c 53A1      		ldd r21,Z+35
 1359 002e 64A1      		ldd r22,Z+36
 1360 0030 75A1      		ldd r23,Z+37
 1361 0032 46A3      		std Z+38,r20
 1362 0034 57A3      		std Z+39,r21
 1363 0036 60A7      		std Z+40,r22
 1364 0038 71A7      		std Z+41,r23
 306:../../LUFA-111009/LUFA/Drivers/USB/Class/Common/HIDParser.c **** 	ReportItem->Value = 0;
 1365               		.loc 1 306 0
 1366 003a 12A2      		std Z+34,__zero_reg__
 1367 003c 13A2      		std Z+35,__zero_reg__
 1368 003e 14A2      		std Z+36,__zero_reg__
 1369 0040 15A2      		std Z+37,__zero_reg__
 294:../../LUFA-111009/LUFA/Drivers/USB/Class/Common/HIDParser.c **** 	uint16_t CurrentBit   = ReportItem->BitOffset;
 1370               		.loc 1 294 0
 1371 0042 AD2F      		mov r26,r29
 1372 0044 BC2F      		mov r27,r28
 295:../../LUFA-111009/LUFA/Drivers/USB/Class/Common/HIDParser.c **** 	uint32_t BitMask      = (1 << 0);
 1373               		.loc 1 295 0
 1374 0046 41E0      		ldi r20,lo8(1)
 1375 0048 50E0      		ldi r21,0
 1376 004a 60E0      		ldi r22,0
 1377 004c 70E0      		ldi r23,0
 1378 004e 7D01      		movw r14,r26
 1379 0050 E30E      		add r14,r19
 1380 0052 F11C      		adc r15,__zero_reg__
 1381               	.LVL105:
 1382               	.L99:
 307:../../LUFA-111009/LUFA/Drivers/USB/Class/Common/HIDParser.c **** 
 308:../../LUFA-111009/LUFA/Drivers/USB/Class/Common/HIDParser.c **** 	while (DataBitsRem--)
 1383               		.loc 1 308 0 discriminator 1
 1384 0054 EA16      		cp r14,r26
 1385 0056 FB06      		cpc r15,r27
 1386 0058 01F0      		breq .L110
 309:../../LUFA-111009/LUFA/Drivers/USB/Class/Common/HIDParser.c **** 	{
 310:../../LUFA-111009/LUFA/Drivers/USB/Class/Common/HIDParser.c **** 		if (ReportData[CurrentBit / 8] & (1 << (CurrentBit % 8)))
 1387               		.loc 1 310 0
 1388 005a 9D01      		movw r18,r26
 1389 005c C3E0      		ldi r28,3
 1390               		1:
 1391 005e 3695      		lsr r19
 1392 0060 2795      		ror r18
 1393 0062 CA95      		dec r28
 1394 0064 01F4      		brne 1b
 1395 0066 280F      		add r18,r24
 1396 0068 391F      		adc r19,r25
 1397 006a E901      		movw r28,r18
 1398 006c 2881      		ld r18,Y
 1399 006e 30E0      		ldi r19,0
 1400 0070 8D01      		movw r16,r26
 1401 0072 0770      		andi r16,7
 1402 0074 1127      		clr r17
 1403 0076 00C0      		rjmp 2f
 1404               		1:
 1405 0078 3595      		asr r19
 1406 007a 2795      		ror r18
 1407               		2:
 1408 007c 0A95      		dec r16
 1409 007e 02F4      		brpl 1b
 1410 0080 20FF      		sbrs r18,0
 1411 0082 00C0      		rjmp .L100
 311:../../LUFA-111009/LUFA/Drivers/USB/Class/Common/HIDParser.c **** 		  ReportItem->Value |= BitMask;
 1412               		.loc 1 311 0
 1413 0084 02A1      		ldd r16,Z+34
 1414 0086 13A1      		ldd r17,Z+35
 1415 0088 24A1      		ldd r18,Z+36
 1416 008a 35A1      		ldd r19,Z+37
 1417 008c 042B      		or r16,r20
 1418 008e 152B      		or r17,r21
 1419 0090 262B      		or r18,r22
 1420 0092 372B      		or r19,r23
 1421 0094 02A3      		std Z+34,r16
 1422 0096 13A3      		std Z+35,r17
 1423 0098 24A3      		std Z+36,r18
 1424 009a 35A3      		std Z+37,r19
 1425               	.L100:
 312:../../LUFA-111009/LUFA/Drivers/USB/Class/Common/HIDParser.c **** 
 313:../../LUFA-111009/LUFA/Drivers/USB/Class/Common/HIDParser.c **** 		CurrentBit++;
 1426               		.loc 1 313 0
 1427 009c 1196      		adiw r26,1
 1428               	.LVL106:
 314:../../LUFA-111009/LUFA/Drivers/USB/Class/Common/HIDParser.c **** 		BitMask <<= 1;
 1429               		.loc 1 314 0
 1430 009e 440F      		lsl r20
 1431 00a0 551F      		rol r21
 1432 00a2 661F      		rol r22
 1433 00a4 771F      		rol r23
 1434               	.LVL107:
 1435 00a6 00C0      		rjmp .L99
 1436               	.LVL108:
 1437               	.L110:
 315:../../LUFA-111009/LUFA/Drivers/USB/Class/Common/HIDParser.c **** 	}
 316:../../LUFA-111009/LUFA/Drivers/USB/Class/Common/HIDParser.c **** 
 317:../../LUFA-111009/LUFA/Drivers/USB/Class/Common/HIDParser.c **** 	return true;
 1438               		.loc 1 317 0
 1439 00a8 81E0      		ldi r24,lo8(1)
 1440               	.LVL109:
 1441 00aa 00C0      		rjmp .L97
 1442               	.LVL110:
 1443               	.L103:
 291:../../LUFA-111009/LUFA/Drivers/USB/Class/Common/HIDParser.c **** 	  return false;
 1444               		.loc 1 291 0
 1445 00ac 80E0      		ldi r24,0
 1446               	.LVL111:
 1447               	.L97:
 1448               	/* epilogue start */
 318:../../LUFA-111009/LUFA/Drivers/USB/Class/Common/HIDParser.c **** }
 1449               		.loc 1 318 0
 1450 00ae DF91      		pop r29
 1451 00b0 CF91      		pop r28
 1452 00b2 1F91      		pop r17
 1453 00b4 0F91      		pop r16
 1454 00b6 FF90      		pop r15
 1455 00b8 EF90      		pop r14
 1456 00ba 0895      		ret
 1457               		.cfi_endproc
 1458               	.LFE17:
 1460               		.section	.text.USB_SetHIDReportItemInfo,"ax",@progbits
 1461               	.global	USB_SetHIDReportItemInfo
 1463               	USB_SetHIDReportItemInfo:
 1464               	.LFB18:
 319:../../LUFA-111009/LUFA/Drivers/USB/Class/Common/HIDParser.c **** 
 320:../../LUFA-111009/LUFA/Drivers/USB/Class/Common/HIDParser.c **** void USB_SetHIDReportItemInfo(uint8_t* ReportData,
 321:../../LUFA-111009/LUFA/Drivers/USB/Class/Common/HIDParser.c ****                               HID_ReportItem_t* const ReportItem)
 322:../../LUFA-111009/LUFA/Drivers/USB/Class/Common/HIDParser.c **** {
 1465               		.loc 1 322 0
 1466               		.cfi_startproc
 1467               	.LVL112:
 1468 0000 8F92      		push r8
 1469               	.LCFI26:
 1470               		.cfi_def_cfa_offset 3
 1471               		.cfi_offset 8, -2
 1472 0002 9F92      		push r9
 1473               	.LCFI27:
 1474               		.cfi_def_cfa_offset 4
 1475               		.cfi_offset 9, -3
 1476 0004 AF92      		push r10
 1477               	.LCFI28:
 1478               		.cfi_def_cfa_offset 5
 1479               		.cfi_offset 10, -4
 1480 0006 BF92      		push r11
 1481               	.LCFI29:
 1482               		.cfi_def_cfa_offset 6
 1483               		.cfi_offset 11, -5
 1484 0008 CF92      		push r12
 1485               	.LCFI30:
 1486               		.cfi_def_cfa_offset 7
 1487               		.cfi_offset 12, -6
 1488 000a DF92      		push r13
 1489               	.LCFI31:
 1490               		.cfi_def_cfa_offset 8
 1491               		.cfi_offset 13, -7
 1492 000c EF92      		push r14
 1493               	.LCFI32:
 1494               		.cfi_def_cfa_offset 9
 1495               		.cfi_offset 14, -8
 1496 000e FF92      		push r15
 1497               	.LCFI33:
 1498               		.cfi_def_cfa_offset 10
 1499               		.cfi_offset 15, -9
 1500 0010 0F93      		push r16
 1501               	.LCFI34:
 1502               		.cfi_def_cfa_offset 11
 1503               		.cfi_offset 16, -10
 1504 0012 1F93      		push r17
 1505               	.LCFI35:
 1506               		.cfi_def_cfa_offset 12
 1507               		.cfi_offset 17, -11
 1508 0014 CF93      		push r28
 1509               	.LCFI36:
 1510               		.cfi_def_cfa_offset 13
 1511               		.cfi_offset 28, -12
 1512 0016 DF93      		push r29
 1513               	.LCFI37:
 1514               		.cfi_def_cfa_offset 14
 1515               		.cfi_offset 29, -13
 1516               	/* prologue: function */
 1517               	/* frame size = 0 */
 1518               	/* stack size = 12 */
 1519               	.L__stack_usage = 12
 1520 0018 DB01      		movw r26,r22
 323:../../LUFA-111009/LUFA/Drivers/USB/Class/Common/HIDParser.c **** 	if (ReportItem == NULL)
 1521               		.loc 1 323 0
 1522 001a 1097      		sbiw r26,0
 1523 001c 01F4      		brne .+2
 1524 001e 00C0      		rjmp .L111
 324:../../LUFA-111009/LUFA/Drivers/USB/Class/Common/HIDParser.c **** 	  return;
 325:../../LUFA-111009/LUFA/Drivers/USB/Class/Common/HIDParser.c **** 
 326:../../LUFA-111009/LUFA/Drivers/USB/Class/Common/HIDParser.c **** 	uint16_t DataBitsRem  = ReportItem->Attributes.BitSize;
 1525               		.loc 1 326 0
 1526 0020 1896      		adiw r26,8
 1527 0022 CC91      		ld r28,X
 1528 0024 1897      		sbiw r26,8
 1529 0026 D0E0      		ldi r29,0
 1530               	.LVL113:
 327:../../LUFA-111009/LUFA/Drivers/USB/Class/Common/HIDParser.c **** 	uint16_t CurrentBit   = ReportItem->BitOffset;
 1531               		.loc 1 327 0
 1532 0028 1C91      		ld r17,X
 1533 002a 1196      		adiw r26,1
 1534 002c 3C91      		ld r19,X
 1535 002e 1197      		sbiw r26,1
 1536               	.LVL114:
 328:../../LUFA-111009/LUFA/Drivers/USB/Class/Common/HIDParser.c **** 	uint32_t BitMask      = (1 << 0);
 329:../../LUFA-111009/LUFA/Drivers/USB/Class/Common/HIDParser.c **** 
 330:../../LUFA-111009/LUFA/Drivers/USB/Class/Common/HIDParser.c **** 	if (ReportItem->ReportID)
 1537               		.loc 1 330 0
 1538 0030 1596      		adiw r26,5
 1539 0032 2C91      		ld r18,X
 1540 0034 1597      		sbiw r26,5
 1541 0036 2223      		tst r18
 1542 0038 01F0      		breq .L113
 331:../../LUFA-111009/LUFA/Drivers/USB/Class/Common/HIDParser.c **** 	{
 332:../../LUFA-111009/LUFA/Drivers/USB/Class/Common/HIDParser.c **** 		ReportData[0] = ReportItem->ReportID;
 1543               		.loc 1 332 0
 1544 003a FC01      		movw r30,r24
 1545 003c 2193      		st Z+,r18
 1546               	.LVL115:
 1547 003e CF01      		movw r24,r30
 1548               	.LVL116:
 1549               	.L113:
 333:../../LUFA-111009/LUFA/Drivers/USB/Class/Common/HIDParser.c **** 		ReportData++;
 334:../../LUFA-111009/LUFA/Drivers/USB/Class/Common/HIDParser.c **** 	}
 335:../../LUFA-111009/LUFA/Drivers/USB/Class/Common/HIDParser.c **** 
 336:../../LUFA-111009/LUFA/Drivers/USB/Class/Common/HIDParser.c **** 	ReportItem->PreviousValue = ReportItem->Value;
 1550               		.loc 1 336 0
 1551 0040 9296      		adiw r26,34
 1552 0042 4D91      		ld r20,X+
 1553 0044 5D91      		ld r21,X+
 1554 0046 6D91      		ld r22,X+
 1555 0048 7C91      		ld r23,X
 1556 004a 9597      		sbiw r26,34+3
 1557 004c 9696      		adiw r26,38
 1558 004e 4D93      		st X+,r20
 1559 0050 5D93      		st X+,r21
 1560 0052 6D93      		st X+,r22
 1561 0054 7C93      		st X,r23
 1562 0056 9997      		sbiw r26,38+3
 327:../../LUFA-111009/LUFA/Drivers/USB/Class/Common/HIDParser.c **** 	uint16_t CurrentBit   = ReportItem->BitOffset;
 1563               		.loc 1 327 0
 1564 0058 E12F      		mov r30,r17
 1565 005a F32F      		mov r31,r19
 328:../../LUFA-111009/LUFA/Drivers/USB/Class/Common/HIDParser.c **** 	uint32_t BitMask      = (1 << 0);
 1566               		.loc 1 328 0
 1567 005c 41E0      		ldi r20,lo8(1)
 1568 005e 50E0      		ldi r21,0
 1569 0060 60E0      		ldi r22,0
 1570 0062 70E0      		ldi r23,0
 1571 0064 6E01      		movw r12,r28
 1572 0066 CE0E      		add r12,r30
 1573 0068 DF1E      		adc r13,r31
 337:../../LUFA-111009/LUFA/Drivers/USB/Class/Common/HIDParser.c **** 
 338:../../LUFA-111009/LUFA/Drivers/USB/Class/Common/HIDParser.c **** 	while (DataBitsRem--)
 339:../../LUFA-111009/LUFA/Drivers/USB/Class/Common/HIDParser.c **** 	{
 340:../../LUFA-111009/LUFA/Drivers/USB/Class/Common/HIDParser.c **** 		if (ReportItem->Value & (1 << (CurrentBit % 8)))
 1574               		.loc 1 340 0
 1575 006a EE24      		clr r14
 1576 006c E394      		inc r14
 1577 006e F12C      		mov r15,__zero_reg__
 1578               	.LVL117:
 1579               	.L114:
 338:../../LUFA-111009/LUFA/Drivers/USB/Class/Common/HIDParser.c **** 	while (DataBitsRem--)
 1580               		.loc 1 338 0 discriminator 1
 1581 0070 CE16      		cp r12,r30
 1582 0072 DF06      		cpc r13,r31
 1583 0074 01F0      		breq .L111
 1584               		.loc 1 340 0
 1585 0076 8F01      		movw r16,r30
 1586 0078 0770      		andi r16,7
 1587 007a 1127      		clr r17
 1588 007c 9701      		movw r18,r14
 1589 007e 00C0      		rjmp 2f
 1590               		1:
 1591 0080 220F      		lsl r18
 1592 0082 331F      		rol r19
 1593               		2:
 1594 0084 0A95      		dec r16
 1595 0086 02F4      		brpl 1b
 1596 0088 8901      		movw r16,r18
 1597 008a 2227      		clr r18
 1598 008c 17FD      		sbrc r17,7
 1599 008e 2095      		com r18
 1600 0090 322F      		mov r19,r18
 1601 0092 9296      		adiw r26,34
 1602 0094 8D90      		ld r8,X+
 1603 0096 9D90      		ld r9,X+
 1604 0098 AD90      		ld r10,X+
 1605 009a BC90      		ld r11,X
 1606 009c 9597      		sbiw r26,34+3
 1607 009e 0821      		and r16,r8
 1608 00a0 1921      		and r17,r9
 1609 00a2 2A21      		and r18,r10
 1610 00a4 3B21      		and r19,r11
 1611 00a6 012B      		or r16,r17
 1612 00a8 022B      		or r16,r18
 1613 00aa 032B      		or r16,r19
 1614 00ac 01F0      		breq .L115
 341:../../LUFA-111009/LUFA/Drivers/USB/Class/Common/HIDParser.c **** 		  ReportData[CurrentBit / 8] |= BitMask;
 1615               		.loc 1 341 0
 1616 00ae 9F01      		movw r18,r30
 1617 00b0 13E0      		ldi r17,3
 1618               		1:
 1619 00b2 3695      		lsr r19
 1620 00b4 2795      		ror r18
 1621 00b6 1A95      		dec r17
 1622 00b8 01F4      		brne 1b
 1623 00ba 280F      		add r18,r24
 1624 00bc 391F      		adc r19,r25
 1625 00be E901      		movw r28,r18
 1626 00c0 1881      		ld r17,Y
 1627 00c2 142B      		or r17,r20
 1628 00c4 1883      		st Y,r17
 1629               	.L115:
 342:../../LUFA-111009/LUFA/Drivers/USB/Class/Common/HIDParser.c **** 
 343:../../LUFA-111009/LUFA/Drivers/USB/Class/Common/HIDParser.c **** 		CurrentBit++;
 1630               		.loc 1 343 0
 1631 00c6 3196      		adiw r30,1
 1632               	.LVL118:
 344:../../LUFA-111009/LUFA/Drivers/USB/Class/Common/HIDParser.c **** 		BitMask <<= 1;
 1633               		.loc 1 344 0
 1634 00c8 440F      		lsl r20
 1635 00ca 551F      		rol r21
 1636 00cc 661F      		rol r22
 1637 00ce 771F      		rol r23
 1638               	.LVL119:
 1639 00d0 00C0      		rjmp .L114
 1640               	.LVL120:
 1641               	.L111:
 1642               	/* epilogue start */
 345:../../LUFA-111009/LUFA/Drivers/USB/Class/Common/HIDParser.c **** 	}
 346:../../LUFA-111009/LUFA/Drivers/USB/Class/Common/HIDParser.c **** }
 1643               		.loc 1 346 0
 1644 00d2 DF91      		pop r29
 1645 00d4 CF91      		pop r28
 1646 00d6 1F91      		pop r17
 1647 00d8 0F91      		pop r16
 1648 00da FF90      		pop r15
 1649 00dc EF90      		pop r14
 1650 00de DF90      		pop r13
 1651 00e0 CF90      		pop r12
 1652 00e2 BF90      		pop r11
 1653 00e4 AF90      		pop r10
 1654 00e6 9F90      		pop r9
 1655 00e8 8F90      		pop r8
 1656 00ea 0895      		ret
 1657               		.cfi_endproc
 1658               	.LFE18:
 1660               		.section	.text.USB_GetHIDReportSize,"ax",@progbits
 1661               	.global	USB_GetHIDReportSize
 1663               	USB_GetHIDReportSize:
 1664               	.LFB19:
 347:../../LUFA-111009/LUFA/Drivers/USB/Class/Common/HIDParser.c **** 
 348:../../LUFA-111009/LUFA/Drivers/USB/Class/Common/HIDParser.c **** uint16_t USB_GetHIDReportSize(HID_ReportInfo_t* const ParserData,
 349:../../LUFA-111009/LUFA/Drivers/USB/Class/Common/HIDParser.c ****                               const uint8_t ReportID,
 350:../../LUFA-111009/LUFA/Drivers/USB/Class/Common/HIDParser.c ****                               const uint8_t ReportType)
 351:../../LUFA-111009/LUFA/Drivers/USB/Class/Common/HIDParser.c **** {
 1665               		.loc 1 351 0
 1666               		.cfi_startproc
 1667               	.LVL121:
 1668               	/* prologue: function */
 1669               	/* frame size = 0 */
 1670               	/* stack size = 0 */
 1671               	.L__stack_usage = 0
 1672 0000 FC01      		movw r30,r24
 1673 0002 E40F      		add r30,r20
 1674 0004 F11D      		adc r31,__zero_reg__
 1675 0006 E40F      		add r30,r20
 1676 0008 F11D      		adc r31,__zero_reg__
 1677               		.loc 1 351 0
 1678 000a 20E0      		ldi r18,0
 1679 000c 30E0      		ldi r19,0
 1680               	.LVL122:
 1681               	.L128:
 1682 000e DF01      		movw r26,r30
 1683 0010 A20F      		add r26,r18
 1684 0012 B31F      		adc r27,r19
 1685 0014 AF56      		subi r26,111
 1686 0016 BC4F      		sbci r27,-4
 1687               	.LBB20:
 1688               	.LBB21:
 352:../../LUFA-111009/LUFA/Drivers/USB/Class/Common/HIDParser.c **** 	for (uint8_t i = 0; i < HID_MAX_REPORT_IDS; i++)
 353:../../LUFA-111009/LUFA/Drivers/USB/Class/Common/HIDParser.c **** 	{
 354:../../LUFA-111009/LUFA/Drivers/USB/Class/Common/HIDParser.c **** 		uint16_t ReportSizeBits = ParserData->ReportIDSizes[i].ReportSizeBits[ReportType];
 1689               		.loc 1 354 0
 1690 0018 4D91      		ld r20,X+
 1691 001a 5C91      		ld r21,X
 1692               	.LVL123:
 1693 001c DC01      		movw r26,r24
 1694 001e A20F      		add r26,r18
 1695 0020 B31F      		adc r27,r19
 1696 0022 A057      		subi r26,112
 1697 0024 BC4F      		sbci r27,-4
 355:../../LUFA-111009/LUFA/Drivers/USB/Class/Common/HIDParser.c **** 
 356:../../LUFA-111009/LUFA/Drivers/USB/Class/Common/HIDParser.c **** 		if (ParserData->ReportIDSizes[i].ReportID == ReportID)
 1698               		.loc 1 356 0
 1699 0026 7C91      		ld r23,X
 1700 0028 7613      		cpse r23,r22
 1701 002a 00C0      		rjmp .L125
 357:../../LUFA-111009/LUFA/Drivers/USB/Class/Common/HIDParser.c **** 		  return (ReportSizeBits / 8) + ((ReportSizeBits % 8) ? 1 : 0);
 1702               		.loc 1 357 0
 1703 002c 21E0      		ldi r18,lo8(1)
 1704 002e 30E0      		ldi r19,0
 1705 0030 CA01      		movw r24,r20
 1706               	.LVL124:
 1707 0032 8770      		andi r24,7
 1708 0034 9927      		clr r25
 1709 0036 892B      		or r24,r25
 1710 0038 01F4      		brne .L126
 1711 003a 20E0      		ldi r18,0
 1712 003c 30E0      		ldi r19,0
 1713               	.L126:
 1714 003e CA01      		movw r24,r20
 1715 0040 43E0      		ldi r20,3
 1716               		1:
 1717 0042 9695      		lsr r25
 1718 0044 8795      		ror r24
 1719 0046 4A95      		dec r20
 1720 0048 01F4      		brne 1b
 1721               	.LVL125:
 1722 004a 820F      		add r24,r18
 1723 004c 931F      		adc r25,r19
 1724 004e 0895      		ret
 1725               	.LVL126:
 1726               	.L125:
 1727 0050 295F      		subi r18,-7
 1728 0052 3F4F      		sbci r19,-1
 1729               	.LBE21:
 352:../../LUFA-111009/LUFA/Drivers/USB/Class/Common/HIDParser.c **** 	for (uint8_t i = 0; i < HID_MAX_REPORT_IDS; i++)
 1730               		.loc 1 352 0
 1731 0054 2634      		cpi r18,70
 1732 0056 3105      		cpc r19,__zero_reg__
 1733 0058 01F4      		brne .L128
 1734               	.LBE20:
 358:../../LUFA-111009/LUFA/Drivers/USB/Class/Common/HIDParser.c **** 	}
 359:../../LUFA-111009/LUFA/Drivers/USB/Class/Common/HIDParser.c **** 
 360:../../LUFA-111009/LUFA/Drivers/USB/Class/Common/HIDParser.c **** 	return 0;
 1735               		.loc 1 360 0
 1736 005a 80E0      		ldi r24,0
 1737 005c 90E0      		ldi r25,0
 1738               	.LVL127:
 361:../../LUFA-111009/LUFA/Drivers/USB/Class/Common/HIDParser.c **** }
 1739               		.loc 1 361 0
 1740 005e 0895      		ret
 1741               		.cfi_endproc
 1742               	.LFE19:
 1744               		.text
 1745               	.Letext0:
 1746               		.file 2 "/usr/lib/avr/include/stdint.h"
 1747               		.file 3 "../../LUFA-111009/LUFA/Drivers/USB/Class/Common/../Common/HID.h"
 1748               		.file 4 "../../LUFA-111009/LUFA/Drivers/USB/Class/Common/HIDParser.h"